(dp1
S'DTC(max_depth=25)breast_cancer_Identity_bin_scaled_mono_True_ratio_0.4'
p2
cnumpy.core.multiarray
scalar
p3
(cnumpy
dtype
p4
(S'f8'
I0
I1
tRp5
(I3
S'<'
NNNI-1
I-1
I0
tbS'\xf5\xd3O?\xfd\xf4\xd3?'
tRp6
sS'DTC(max_depth=25)breast_cancer_Identity_bin_scaled_mono_True_ratio_0.2'
p7
g3
(g5
S'\xc6\x18c\x8c1\xc6\xd8?'
tRp8
sS'DTC(max_depth=25)breast_cancer_Identity_bin_scaled_mono_True_ratio_0.3'
p9
g3
(g5
S"'\x9ah\xa2\x89&\xda?"
tRp10
sS'DTC(max_depth=25)breast_cancer_Identity_bin_scaled_mono_True_ratio_0.0'
p11
g3
(g5
S'\xe4\x91G\x1ey\xe4\xd1?'
tRp12
sS'DTC(max_depth=25)breast_cancer_Identity_bin_scaled_mono_True_ratio_0.1'
p13
g3
(g5
S'7\xdcp\xc3\r7\xdc?'
tRp14
sS'DTC(max_depth=20)breast_cancer_Summary_bin_scaled_mono_True_ratio_0.2'
p15
g3
(g5
S'\x16X`\x81\x05\x16\xd8?'
tRp16
sS'DTC(max_depth=20)breast_cancer_Summary_bin_scaled_mono_True_ratio_0.3'
p17
g3
(g5
S'\xc6\x18c\x8c1\xc6\xd8?'
tRp18
sS'DTC(max_depth=20)breast_cancer_Summary_bin_scaled_mono_True_ratio_0.0'
p19
g3
(g5
S'\xa5\x94RJ)\xa5\xd4?'
tRp20
sS'DTC(max_depth=20)breast_cancer_Summary_bin_scaled_mono_True_ratio_0.1'
p21
g3
(g5
S'\xa5\x94RJ)\xa5\xd4?'
tRp22
sS'DTC(max_depth=20)breast_cancer_Summary_bin_scaled_mono_True_ratio_0.4'
p23
g3
(g5
S'\x87\x1bn\xb8\xe1\x86\xdb?'
tRp24
sS'RFC(n_estimators=2500, max_features="log2")breast_cancer_SVM_bin_scaled_mono_True_ratio_0.0'
p25
g3
(g5
S'\xe4\x91G\x1ey\xe4\xd1?'
tRp26
sS'RFC(n_estimators=2500, max_features="log2")breast_cancer_SVM_bin_scaled_mono_True_ratio_0.1'
p27
g3
(g5
S'4\xd1D\x13M4\xd1?'
tRp28
sS'RFC(n_estimators=2500, max_features="log2")breast_cancer_SVM_bin_scaled_mono_True_ratio_0.2'
p29
g3
(g5
S'\x95RJ)\xa5\x94\xd2?'
tRp30
sS'RFC(n_estimators=2500, max_features="log2")breast_cancer_SVM_bin_scaled_mono_True_ratio_0.3'
p31
g3
(g5
S'\x95RJ)\xa5\x94\xd2?'
tRp32
sS'RFC(n_estimators=2500, max_features="log2")breast_cancer_SVM_bin_scaled_mono_True_ratio_0.4'
p33
g3
(g5
S'H\x1ey\xe4\x91G\xce?'
tRp34
sS'DTC(max_depth=10)breast_cancer_RandomForest_bin_scaled_mono_True_ratio_0.2'
p35
g3
(g5
S'\x16X`\x81\x05\x16\xd8?'
tRp36
sS'DTC(max_depth=10)breast_cancer_RandomForest_bin_scaled_mono_True_ratio_0.3'
p37
g3
(g5
S'\xb6\xd6Zk\xad\xb5\xd6?'
tRp38
sS'DTC(max_depth=10)breast_cancer_RandomForest_bin_scaled_mono_True_ratio_0.0'
p39
g3
(g5
S'\xe4\x91G\x1ey\xe4\xd1?'
tRp40
sS'DTC(max_depth=10)breast_cancer_RandomForest_bin_scaled_mono_True_ratio_0.1'
p41
g3
(g5
S'\x06\x16X`\x81\x05\xd6?'
tRp42
sS'DTC(max_depth=1000)breast_cancer_Identity_bin_scaled_mono_True_ratio_0.3'
p43
g3
(g5
S"'\x9ah\xa2\x89&\xda?"
tRp44
sS'DTC(max_depth=10)breast_cancer_RandomForest_bin_scaled_mono_True_ratio_0.4'
p45
g3
(g5
S'\x95RJ)\xa5\x94\xd2?'
tRp46
sS'DTC(max_depth=500)breast_cancer_RandomReplace_bin_scaled_mono_True_ratio_0.4'
p47
g3
(g5
S'UUUUUU\xd5?'
tRp48
sS'DTC(max_depth=500)breast_cancer_RandomReplace_bin_scaled_mono_True_ratio_0.3'
p49
g3
(g5
S'\xd7Zk\xad\xb5\xd6\xda?'
tRp50
sS'DTC(max_depth=500)breast_cancer_RandomReplace_bin_scaled_mono_True_ratio_0.2'
p51
g3
(g5
S'H\x1ey\xe4\x91G\xce?'
tRp52
sS'DTC(max_depth=500)breast_cancer_RandomReplace_bin_scaled_mono_True_ratio_0.1'
p53
g3
(g5
S'v\xd9e\x97]v\xd9?'
tRp54
sS'DTC(max_depth=500)breast_cancer_RandomReplace_bin_scaled_mono_True_ratio_0.0'
p55
g3
(g5
S'\xe4\x91G\x1ey\xe4\xd1?'
tRp56
sS'RFC(n_estimators=10, max_features="sqrt")breast_cancer_LogisticRegression_bin_scaled_mono_True_ratio_0.2'
p57
g3
(g5
S'E\x13M4\xd1D\xd3?'
tRp58
sS'RFC(n_estimators=10, max_features="sqrt")breast_cancer_LogisticRegression_bin_scaled_mono_True_ratio_0.3'
p59
g3
(g5
S'\x84\x10B\x08!\x84\xd0?'
tRp60
sS'RFC(n_estimators=10, max_features="sqrt")breast_cancer_LogisticRegression_bin_scaled_mono_True_ratio_0.0'
p61
g3
(g5
S'\xe4\x91G\x1ey\xe4\xd1?'
tRp62
sS'RFC(n_estimators=10, max_features="sqrt")breast_cancer_LogisticRegression_bin_scaled_mono_True_ratio_0.1'
p63
g3
(g5
S'\xe4\x91G\x1ey\xe4\xd1?'
tRp64
sS'DTC(max_depth=2000)breast_cancer_LogisticRegression_bin_scaled_mono_True_ratio_0.2'
p65
g3
(g5
S'E\x13M4\xd1D\xd3?'
tRp66
sS'DTC(max_depth=2000)breast_cancer_LogisticRegression_bin_scaled_mono_True_ratio_0.3'
p67
g3
(g5
S'v\xd9e\x97]v\xd9?'
tRp68
sS'DTC(max_depth=2000)breast_cancer_LogisticRegression_bin_scaled_mono_True_ratio_0.0'
p69
g3
(g5
S'\xf5\xd3O?\xfd\xf4\xd3?'
tRp70
sS'DTC(max_depth=2000)breast_cancer_LogisticRegression_bin_scaled_mono_True_ratio_0.1'
p71
g3
(g5
S'\xf5\xd3O?\xfd\xf4\xd3?'
tRp72
sS'DTC(max_depth=50)breast_cancer_Summary_bin_scaled_mono_True_ratio_0.1'
p73
g3
(g5
S'\xb6\xd6Zk\xad\xb5\xd6?'
tRp74
sS'DTC(max_depth=50)breast_cancer_Summary_bin_scaled_mono_True_ratio_0.0'
p75
g3
(g5
S'\xa5\x94RJ)\xa5\xd4?'
tRp76
sS'RFC(n_estimators=1000, max_features="sqrt")breast_cancer_Summary_bin_scaled_mono_True_ratio_0.0'
p77
g3
(g5
S'4\xd1D\x13M4\xd1?'
tRp78
sS'RFC(n_estimators=1000, max_features="sqrt")breast_cancer_Summary_bin_scaled_mono_True_ratio_0.1'
p79
g3
(g5
S'\x84\x10B\x08!\x84\xd0?'
tRp80
sS'RFC(n_estimators=2500, max_features="log2")breast_cancer_RandomForest_bin_scaled_mono_True_ratio_0.1'
p81
g3
(g5
S'\xe4\x91G\x1ey\xe4\xd1?'
tRp82
sS'DTC(max_depth=50)breast_cancer_Summary_bin_scaled_mono_True_ratio_0.4'
p83
g3
(g5
S'v\xd9e\x97]v\xd9?'
tRp84
sS'RFC(n_estimators=1000, max_features="sqrt")breast_cancer_Summary_bin_scaled_mono_True_ratio_0.4'
p85
g3
(g5
S'UUUUUU\xd5?'
tRp86
sS'RFC(n_estimators=2500, max_features="log2")breast_cancer_RandomForest_bin_scaled_mono_True_ratio_0.2'
p87
g3
(g5
S'\x95RJ)\xa5\x94\xd2?'
tRp88
sS'RFC(n_estimators=10, max_features="sqrt")breast_cancer_Summary_bin_scaled_mono_True_ratio_0.0'
p89
g3
(g5
S'\xe4\x91G\x1ey\xe4\xd1?'
tRp90
sS'DTC(max_depth=100)breast_cancer_RandomForest_bin_scaled_mono_True_ratio_0.0'
p91
g3
(g5
S'\x06\x16X`\x81\x05\xd6?'
tRp92
sS'DTC(max_depth=100)breast_cancer_RandomForest_bin_scaled_mono_True_ratio_0.3'
p93
g3
(g5
S'\xa5\x94RJ)\xa5\xd4?'
tRp94
sS'DTC(max_depth=100)breast_cancer_RandomForest_bin_scaled_mono_True_ratio_0.2'
p95
g3
(g5
S'\x87\x1bn\xb8\xe1\x86\xdb?'
tRp96
sS'RFC(n_estimators=10, max_features="sqrt")breast_cancer_Summary_bin_scaled_mono_True_ratio_0.4'
p97
g3
(g5
S'\xe4\x91G\x1ey\xe4\xd1?'
tRp98
sS'DTC(max_depth=100)breast_cancer_RandomForest_bin_scaled_mono_True_ratio_0.4'
p99
g3
(g5
S'E\x13M4\xd1D\xd3?'
tRp100
sS'RFC(n_estimators=25, max_features="sqrt")breast_cancer_LogisticRegression_bin_scaled_mono_True_ratio_0.4'
p101
g3
(g5
S'\x84\x10B\x08!\x84\xd0?'
tRp102
sS'RFC(n_estimators=25, max_features="sqrt")breast_cancer_LogisticRegression_bin_scaled_mono_True_ratio_0.2'
p103
g3
(g5
S'4\xd1D\x13M4\xd1?'
tRp104
sS'RFC(n_estimators=25, max_features="sqrt")breast_cancer_LogisticRegression_bin_scaled_mono_True_ratio_0.3'
p105
g3
(g5
S'\xe4\x91G\x1ey\xe4\xd1?'
tRp106
sS'RFC(n_estimators=25, max_features="sqrt")breast_cancer_LogisticRegression_bin_scaled_mono_True_ratio_0.0'
p107
g3
(g5
S'\x95RJ)\xa5\x94\xd2?'
tRp108
sS'RFC(n_estimators=25, max_features="sqrt")breast_cancer_LogisticRegression_bin_scaled_mono_True_ratio_0.1'
p109
g3
(g5
S'\xa5\x94RJ)\xa5\xd4?'
tRp110
sS'RFC(n_estimators=50, max_features="log2")breast_cancer_LogisticRegression_bin_scaled_mono_True_ratio_0.3'
p111
g3
(g5
S'4\xd1D\x13M4\xd1?'
tRp112
sS'RFC(n_estimators=1500, max_features="log2")breast_cancer_Identity_bin_scaled_mono_True_ratio_0.2'
p113
g3
(g5
S'\xa5\x94RJ)\xa5\xd4?'
tRp114
sS'RFC(n_estimators=1500, max_features="log2")breast_cancer_Identity_bin_scaled_mono_True_ratio_0.3'
p115
g3
(g5
S'\xe4\x91G\x1ey\xe4\xd1?'
tRp116
sS'RFC(n_estimators=1500, max_features="log2")breast_cancer_Identity_bin_scaled_mono_True_ratio_0.0'
p117
g3
(g5
S'4\xd1D\x13M4\xd1?'
tRp118
sS'RFC(n_estimators=1500, max_features="log2")breast_cancer_Identity_bin_scaled_mono_True_ratio_0.1'
p119
g3
(g5
S'\x84\x10B\x08!\x84\xd0?'
tRp120
sS'RFC(n_estimators=1500, max_features="log2")breast_cancer_Identity_bin_scaled_mono_True_ratio_0.4'
p121
g3
(g5
S'\xe7\x9cs\xce9\xe7\xcc?'
tRp122
sS'RFC(n_estimators=500, max_features="log2")breast_cancer_LogisticRegression_bin_scaled_mono_True_ratio_0.4'
p123
g3
(g5
S'\x84\x10B\x08!\x84\xd0?'
tRp124
sS'RFC(n_estimators=500, max_features="log2")breast_cancer_LogisticRegression_bin_scaled_mono_True_ratio_0.3'
p125
g3
(g5
S'\x84\x10B\x08!\x84\xd0?'
tRp126
sS'RFC(n_estimators=500, max_features="log2")breast_cancer_LogisticRegression_bin_scaled_mono_True_ratio_0.2'
p127
g3
(g5
S'4\xd1D\x13M4\xd1?'
tRp128
sS'RFC(n_estimators=500, max_features="log2")breast_cancer_LogisticRegression_bin_scaled_mono_True_ratio_0.1'
p129
g3
(g5
S'4\xd1D\x13M4\xd1?'
tRp130
sS'RFC(n_estimators=500, max_features="log2")breast_cancer_LogisticRegression_bin_scaled_mono_True_ratio_0.0'
p131
g3
(g5
S'\x95RJ)\xa5\x94\xd2?'
tRp132
sS'DTC(max_depth=5)breast_cancer_Identity_bin_scaled_mono_True_ratio_0.2'
p133
g3
(g5
S'\xc6\x18c\x8c1\xc6\xd8?'
tRp134
sS'RFC(n_estimators=20, max_features="log2")breast_cancer_Identity_bin_scaled_mono_True_ratio_0.0'
p135
g3
(g5
S'H\x1ey\xe4\x91G\xce?'
tRp136
sS'RFC(n_estimators=20, max_features="log2")breast_cancer_Identity_bin_scaled_mono_True_ratio_0.1'
p137
g3
(g5
S'\x87\x1bn\xb8\xe1\x86\xcb?'
tRp138
sS'RFC(n_estimators=20, max_features="log2")breast_cancer_Identity_bin_scaled_mono_True_ratio_0.2'
p139
g3
(g5
S'\x84\x10B\x08!\x84\xd0?'
tRp140
sS'RFC(n_estimators=20, max_features="log2")breast_cancer_Identity_bin_scaled_mono_True_ratio_0.3'
p141
g3
(g5
S'UUUUUU\xd5?'
tRp142
sS'RFC(n_estimators=20, max_features="log2")breast_cancer_Identity_bin_scaled_mono_True_ratio_0.4'
p143
g3
(g5
S'\xe7\x9cs\xce9\xe7\xcc?'
tRp144
sS'RFC(n_estimators=2000, max_features="sqrt")breast_cancer_RandomReplace_bin_scaled_mono_True_ratio_0.4'
p145
g3
(g5
S'\xe7\x9cs\xce9\xe7\xcc?'
tRp146
sS'DTC(max_depth=25)breast_cancer_SVM_bin_scaled_mono_True_ratio_0.0'
p147
g3
(g5
S'UUUUUU\xd5?'
tRp148
sS'DTC(max_depth=25)breast_cancer_SVM_bin_scaled_mono_True_ratio_0.3'
p149
g3
(g5
S'\xa5\x94RJ)\xa5\xd4?'
tRp150
sS'DTC(max_depth=25)breast_cancer_SVM_bin_scaled_mono_True_ratio_0.2'
p151
g3
(g5
S'\x16X`\x81\x05\x16\xd8?'
tRp152
sS'RFC(n_estimators=2000, max_features="sqrt")breast_cancer_RandomReplace_bin_scaled_mono_True_ratio_0.0'
p153
g3
(g5
S'\xe4\x91G\x1ey\xe4\xd1?'
tRp154
sS'RFC(n_estimators=2000, max_features="sqrt")breast_cancer_RandomReplace_bin_scaled_mono_True_ratio_0.1'
p155
g3
(g5
S'\x84\x10B\x08!\x84\xd0?'
tRp156
sS'RFC(n_estimators=2000, max_features="sqrt")breast_cancer_RandomReplace_bin_scaled_mono_True_ratio_0.2'
p157
g3
(g5
S'4\xd1D\x13M4\xd1?'
tRp158
sS'RFC(n_estimators=2000, max_features="sqrt")breast_cancer_RandomReplace_bin_scaled_mono_True_ratio_0.3'
p159
g3
(g5
S'\xa5\x94RJ)\xa5\xd4?'
tRp160
sS'DTC(max_depth=5)breast_cancer_SVM_bin_scaled_mono_True_ratio_0.4'
p161
g3
(g5
S'\xf5\xd3O?\xfd\xf4\xd3?'
tRp162
sS'DTC(max_depth=5)breast_cancer_SVM_bin_scaled_mono_True_ratio_0.2'
p163
g3
(g5
S'\xe7\x9cs\xce9\xe7\xcc?'
tRp164
sS'DTC(max_depth=5)breast_cancer_SVM_bin_scaled_mono_True_ratio_0.3'
p165
g3
(g5
S'UUUUUU\xd5?'
tRp166
sS'DTC(max_depth=5)breast_cancer_SVM_bin_scaled_mono_True_ratio_0.0'
p167
g3
(g5
S'\x95RJ)\xa5\x94\xd2?'
tRp168
sS'DTC(max_depth=5)breast_cancer_SVM_bin_scaled_mono_True_ratio_0.1'
p169
g3
(g5
S'\x06\x16X`\x81\x05\xd6?'
tRp170
sS'DTC(max_depth=500)breast_cancer_SVM_bin_scaled_mono_True_ratio_0.4'
p171
g3
(g5
S'\xe4\x91G\x1ey\xe4\xd1?'
tRp172
sS'RFC(n_estimators=2500, max_features="log2")breast_cancer_Identity_bin_scaled_mono_True_ratio_0.1'
p173
g3
(g5
S'\x84\x10B\x08!\x84\xd0?'
tRp174
sS'RFC(n_estimators=2500, max_features="log2")breast_cancer_Identity_bin_scaled_mono_True_ratio_0.0'
p175
g3
(g5
S'\xe4\x91G\x1ey\xe4\xd1?'
tRp176
sS'RFC(n_estimators=2500, max_features="log2")breast_cancer_Identity_bin_scaled_mono_True_ratio_0.3'
p177
g3
(g5
S'\xe4\x91G\x1ey\xe4\xd1?'
tRp178
sS'RFC(n_estimators=2500, max_features="log2")breast_cancer_Identity_bin_scaled_mono_True_ratio_0.2'
p179
g3
(g5
S'\xf5\xd3O?\xfd\xf4\xd3?'
tRp180
sS'DTC(max_depth=20)breast_cancer_SVM_bin_scaled_mono_True_ratio_0.4'
p181
g3
(g5
S'E\x13M4\xd1D\xd3?'
tRp182
sS'RFC(n_estimators=1000, max_features="sqrt")breast_cancer_LogisticRegression_bin_scaled_mono_True_ratio_0.0'
p183
g3
(g5
S'4\xd1D\x13M4\xd1?'
tRp184
sS'RFC(n_estimators=1000, max_features="sqrt")breast_cancer_LogisticRegression_bin_scaled_mono_True_ratio_0.1'
p185
g3
(g5
S'\x84\x10B\x08!\x84\xd0?'
tRp186
sS'RFC(n_estimators=1000, max_features="sqrt")breast_cancer_LogisticRegression_bin_scaled_mono_True_ratio_0.2'
p187
g3
(g5
S'\xa8\x9f~\xfa\xe9\xa7\xcf?'
tRp188
sS'RFC(n_estimators=1000, max_features="sqrt")breast_cancer_LogisticRegression_bin_scaled_mono_True_ratio_0.3'
p189
g3
(g5
S'\x84\x10B\x08!\x84\xd0?'
tRp190
sS'RFC(n_estimators=1000, max_features="sqrt")breast_cancer_LogisticRegression_bin_scaled_mono_True_ratio_0.4'
p191
g3
(g5
S'\xe7\x9cs\xce9\xe7\xcc?'
tRp192
sS'DTC(max_depth=20)breast_cancer_SVM_bin_scaled_mono_True_ratio_0.3'
p193
g3
(g5
S'UUUUUU\xd5?'
tRp194
sS'DTC(max_depth=500)breast_cancer_SVM_bin_scaled_mono_True_ratio_0.2'
p195
g3
(g5
S'\xb6\xd6Zk\xad\xb5\xd6?'
tRp196
sS'RFC(n_estimators=50, max_features="log2")breast_cancer_Identity_bin_scaled_mono_True_ratio_0.3'
p197
g3
(g5
S'\xa8\x9f~\xfa\xe9\xa7\xcf?'
tRp198
sS'DTC(max_depth=500)breast_cancer_SVM_bin_scaled_mono_True_ratio_0.3'
p199
g3
(g5
S'\x16X`\x81\x05\x16\xd8?'
tRp200
sS'RFC(n_estimators=1500, max_features="log2")breast_cancer_SVM_bin_scaled_mono_True_ratio_0.1'
p201
g3
(g5
S'\x84\x10B\x08!\x84\xd0?'
tRp202
sS'RFC(n_estimators=1500, max_features="log2")breast_cancer_SVM_bin_scaled_mono_True_ratio_0.0'
p203
g3
(g5
S'\xe4\x91G\x1ey\xe4\xd1?'
tRp204
sS'RFC(n_estimators=1500, max_features="log2")breast_cancer_SVM_bin_scaled_mono_True_ratio_0.3'
p205
g3
(g5
S'\x95RJ)\xa5\x94\xd2?'
tRp206
sS'RFC(n_estimators=1500, max_features="log2")breast_cancer_SVM_bin_scaled_mono_True_ratio_0.2'
p207
g3
(g5
S'\x95RJ)\xa5\x94\xd2?'
tRp208
sS'RFC(n_estimators=1500, max_features="log2")breast_cancer_SVM_bin_scaled_mono_True_ratio_0.4'
p209
g3
(g5
S'\xe7\x9cs\xce9\xe7\xcc?'
tRp210
sS'RFC(n_estimators=50, max_features="log2")breast_cancer_RandomReplace_bin_scaled_mono_True_ratio_0.4'
p211
g3
(g5
S"'\x9ah\xa2\x89&\xca?"
tRp212
sS'RFC(n_estimators=50, max_features="log2")breast_cancer_RandomReplace_bin_scaled_mono_True_ratio_0.1'
p213
g3
(g5
S'4\xd1D\x13M4\xd1?'
tRp214
sS'RFC(n_estimators=50, max_features="log2")breast_cancer_RandomReplace_bin_scaled_mono_True_ratio_0.0'
p215
g3
(g5
S'4\xd1D\x13M4\xd1?'
tRp216
sS'RFC(n_estimators=50, max_features="log2")breast_cancer_RandomReplace_bin_scaled_mono_True_ratio_0.3'
p217
g3
(g5
S'\x06\x16X`\x81\x05\xd6?'
tRp218
sS'RFC(n_estimators=50, max_features="log2")breast_cancer_RandomReplace_bin_scaled_mono_True_ratio_0.2'
p219
g3
(g5
S'4\xd1D\x13M4\xd1?'
tRp220
sS'DTC(max_depth=5)breast_cancer_RandomForest_bin_scaled_mono_True_ratio_0.4'
p221
g3
(g5
S'E\x13M4\xd1D\xd3?'
tRp222
sS'DTC(max_depth=5)breast_cancer_RandomForest_bin_scaled_mono_True_ratio_0.3'
p223
g3
(g5
S'\xa5\x94RJ)\xa5\xd4?'
tRp224
sS'DTC(max_depth=5)breast_cancer_RandomForest_bin_scaled_mono_True_ratio_0.2'
p225
g3
(g5
S'\xa8\x9f~\xfa\xe9\xa7\xcf?'
tRp226
sS'DTC(max_depth=5)breast_cancer_RandomForest_bin_scaled_mono_True_ratio_0.1'
p227
g3
(g5
S'\xf5\xd3O?\xfd\xf4\xd3?'
tRp228
sS'DTC(max_depth=5)breast_cancer_RandomForest_bin_scaled_mono_True_ratio_0.0'
p229
g3
(g5
S'\xe4\x91G\x1ey\xe4\xd1?'
tRp230
sS'DTC(max_depth=2500)breast_cancer_Identity_bin_scaled_mono_True_ratio_0.3'
p231
g3
(g5
S"'\x9ah\xa2\x89&\xda?"
tRp232
sS'DTC(max_depth=1000)breast_cancer_RandomForest_bin_scaled_mono_True_ratio_0.4'
p233
g3
(g5
S'\xf5\xd3O?\xfd\xf4\xd3?'
tRp234
sS'DTC(max_depth=1000)breast_cancer_RandomForest_bin_scaled_mono_True_ratio_0.0'
p235
g3
(g5
S'\xa5\x94RJ)\xa5\xd4?'
tRp236
sS'DTC(max_depth=1000)breast_cancer_RandomForest_bin_scaled_mono_True_ratio_0.1'
p237
g3
(g5
S'UUUUUU\xd5?'
tRp238
sS'DTC(max_depth=1000)breast_cancer_RandomForest_bin_scaled_mono_True_ratio_0.2'
p239
g3
(g5
S'\xc6\x18c\x8c1\xc6\xd8?'
tRp240
sS'DTC(max_depth=1000)breast_cancer_RandomForest_bin_scaled_mono_True_ratio_0.3'
p241
g3
(g5
S'\xb6\xd6Zk\xad\xb5\xd6?'
tRp242
sS'RFC(n_estimators=100, max_features="sqrt")breast_cancer_RandomReplace_bin_scaled_mono_True_ratio_0.4'
p243
g3
(g5
S'\xe7\x9cs\xce9\xe7\xcc?'
tRp244
sS'RFC(n_estimators=100, max_features="sqrt")breast_cancer_RandomReplace_bin_scaled_mono_True_ratio_0.2'
p245
g3
(g5
S'\x84\x10B\x08!\x84\xd0?'
tRp246
sS'RFC(n_estimators=100, max_features="sqrt")breast_cancer_RandomReplace_bin_scaled_mono_True_ratio_0.3'
p247
g3
(g5
S'\xa5\x94RJ)\xa5\xd4?'
tRp248
sS'RFC(n_estimators=100, max_features="sqrt")breast_cancer_RandomReplace_bin_scaled_mono_True_ratio_0.0'
p249
g3
(g5
S'\xf5\xd3O?\xfd\xf4\xd3?'
tRp250
sS'RFC(n_estimators=100, max_features="sqrt")breast_cancer_RandomReplace_bin_scaled_mono_True_ratio_0.1'
p251
g3
(g5
S'E\x13M4\xd1D\xd3?'
tRp252
sS'RFC(n_estimators=20, max_features="log2")breast_cancer_RandomForest_bin_scaled_mono_True_ratio_0.4'
p253
g3
(g5
S'\xa8\x9f~\xfa\xe9\xa7\xcf?'
tRp254
sS'DTC(max_depth=5)breast_cancer_Identity_bin_scaled_mono_True_ratio_0.3'
p255
g3
(g5
S'UUUUUU\xd5?'
tRp256
sS'RFC(n_estimators=20, max_features="log2")breast_cancer_RandomForest_bin_scaled_mono_True_ratio_0.0'
p257
g3
(g5
S'\x84\x10B\x08!\x84\xd0?'
tRp258
sS'RFC(n_estimators=20, max_features="log2")breast_cancer_RandomForest_bin_scaled_mono_True_ratio_0.1'
p259
g3
(g5
S'H\x1ey\xe4\x91G\xce?'
tRp260
sS'RFC(n_estimators=20, max_features="log2")breast_cancer_RandomForest_bin_scaled_mono_True_ratio_0.2'
p261
g3
(g5
S'\xe4\x91G\x1ey\xe4\xd1?'
tRp262
sS'RFC(n_estimators=20, max_features="log2")breast_cancer_RandomForest_bin_scaled_mono_True_ratio_0.3'
p263
g3
(g5
S'\xe4\x91G\x1ey\xe4\xd1?'
tRp264
sS'DTC(max_depth=5)breast_cancer_Identity_bin_scaled_mono_True_ratio_0.1'
p265
g3
(g5
S'\xe4\x91G\x1ey\xe4\xd1?'
tRp266
sS'DTC(max_depth=5)breast_cancer_Identity_bin_scaled_mono_True_ratio_0.0'
p267
g3
(g5
S'E\x13M4\xd1D\xd3?'
tRp268
sS'RFC(n_estimators=50, max_features="log2")breast_cancer_SVM_bin_scaled_mono_True_ratio_0.2'
p269
g3
(g5
S'\xf5\xd3O?\xfd\xf4\xd3?'
tRp270
sS'RFC(n_estimators=50, max_features="log2")breast_cancer_SVM_bin_scaled_mono_True_ratio_0.3'
p271
g3
(g5
S'\xe4\x91G\x1ey\xe4\xd1?'
tRp272
sS'RFC(n_estimators=50, max_features="log2")breast_cancer_SVM_bin_scaled_mono_True_ratio_0.0'
p273
g3
(g5
S'4\xd1D\x13M4\xd1?'
tRp274
sS'RFC(n_estimators=50, max_features="log2")breast_cancer_SVM_bin_scaled_mono_True_ratio_0.1'
p275
g3
(g5
S'\x84\x10B\x08!\x84\xd0?'
tRp276
sS'DTC(max_depth=2500)breast_cancer_Identity_bin_scaled_mono_True_ratio_0.4'
p277
g3
(g5
S'\xe4\x91G\x1ey\xe4\xd1?'
tRp278
sS'DTC(max_depth=2000)breast_cancer_LogisticRegression_bin_scaled_mono_True_ratio_0.4'
p279
g3
(g5
S'\xc6\x18c\x8c1\xc6\xd8?'
tRp280
sS'RFC(n_estimators=50, max_features="log2")breast_cancer_SVM_bin_scaled_mono_True_ratio_0.4'
p281
g3
(g5
S'\xa8\x9f~\xfa\xe9\xa7\xcf?'
tRp282
sS'DTC(max_depth=2500)breast_cancer_Identity_bin_scaled_mono_True_ratio_0.0'
p283
g3
(g5
S'UUUUUU\xd5?'
tRp284
sS'DTC(max_depth=5)breast_cancer_Identity_bin_scaled_mono_True_ratio_0.4'
p285
g3
(g5
S'\xa8\x9f~\xfa\xe9\xa7\xcf?'
tRp286
sS'RFC(n_estimators=2500, max_features="log2")breast_cancer_Summary_bin_scaled_mono_True_ratio_0.4'
p287
g3
(g5
S'E\x13M4\xd1D\xd3?'
tRp288
sS'RFC(n_estimators=2500, max_features="log2")breast_cancer_Summary_bin_scaled_mono_True_ratio_0.0'
p289
g3
(g5
S'4\xd1D\x13M4\xd1?'
tRp290
sS'RFC(n_estimators=2500, max_features="log2")breast_cancer_Summary_bin_scaled_mono_True_ratio_0.1'
p291
g3
(g5
S'\xa8\x9f~\xfa\xe9\xa7\xcf?'
tRp292
sS'RFC(n_estimators=2500, max_features="log2")breast_cancer_Summary_bin_scaled_mono_True_ratio_0.2'
p293
g3
(g5
S'\x84\x10B\x08!\x84\xd0?'
tRp294
sS'RFC(n_estimators=2500, max_features="log2")breast_cancer_Summary_bin_scaled_mono_True_ratio_0.3'
p295
g3
(g5
S'\xa5\x94RJ)\xa5\xd4?'
tRp296
sS'DTC(max_depth=500)breast_cancer_Summary_bin_scaled_mono_True_ratio_0.0'
p297
g3
(g5
S'\x95RJ)\xa5\x94\xd2?'
tRp298
sS'DTC(max_depth=500)breast_cancer_Summary_bin_scaled_mono_True_ratio_0.1'
p299
g3
(g5
S'\xb6\xd6Zk\xad\xb5\xd6?'
tRp300
sS'DTC(max_depth=500)breast_cancer_Summary_bin_scaled_mono_True_ratio_0.2'
p301
g3
(g5
S'\xb6\xd6Zk\xad\xb5\xd6?'
tRp302
sS'DTC(max_depth=500)breast_cancer_Summary_bin_scaled_mono_True_ratio_0.3'
p303
g3
(g5
S'UUUUUU\xd5?'
tRp304
sS'DTC(max_depth=500)breast_cancer_Summary_bin_scaled_mono_True_ratio_0.4'
p305
g3
(g5
S'\xd7Zk\xad\xb5\xd6\xda?'
tRp306
sS'DTC(max_depth=100)breast_cancer_Summary_bin_scaled_mono_True_ratio_0.4'
p307
g3
(g5
S'\xd7Zk\xad\xb5\xd6\xda?'
tRp308
sS'DTC(max_depth=5)breast_cancer_Summary_bin_scaled_mono_True_ratio_0.3'
p309
g3
(g5
S'H\x1ey\xe4\x91G\xce?'
tRp310
sS'DTC(max_depth=5)breast_cancer_Summary_bin_scaled_mono_True_ratio_0.0'
p311
g3
(g5
S'\x95RJ)\xa5\x94\xd2?'
tRp312
sS'DTC(max_depth=5)breast_cancer_Summary_bin_scaled_mono_True_ratio_0.1'
p313
g3
(g5
S'\x84\x10B\x08!\x84\xd0?'
tRp314
sS'DTC(max_depth=100)breast_cancer_Summary_bin_scaled_mono_True_ratio_0.0'
p315
g3
(g5
S'E\x13M4\xd1D\xd3?'
tRp316
sS'DTC(max_depth=100)breast_cancer_Summary_bin_scaled_mono_True_ratio_0.1'
p317
g3
(g5
S'\xa5\x94RJ)\xa5\xd4?'
tRp318
sS'DTC(max_depth=5)breast_cancer_Summary_bin_scaled_mono_True_ratio_0.4'
p319
g3
(g5
S'E\x13M4\xd1D\xd3?'
tRp320
sS'DTC(max_depth=100)breast_cancer_Summary_bin_scaled_mono_True_ratio_0.3'
p321
g3
(g5
S'\x16X`\x81\x05\x16\xd8?'
tRp322
sS'DTC(max_depth=25)breast_cancer_LogisticRegression_bin_scaled_mono_True_ratio_0.1'
p323
g3
(g5
S'\x06\x16X`\x81\x05\xd6?'
tRp324
sS'DTC(max_depth=25)breast_cancer_LogisticRegression_bin_scaled_mono_True_ratio_0.0'
p325
g3
(g5
S'E\x13M4\xd1D\xd3?'
tRp326
sS'DTC(max_depth=25)breast_cancer_LogisticRegression_bin_scaled_mono_True_ratio_0.3'
p327
g3
(g5
S'\x16X`\x81\x05\x16\xd8?'
tRp328
sS'DTC(max_depth=25)breast_cancer_LogisticRegression_bin_scaled_mono_True_ratio_0.2'
p329
g3
(g5
S'\xf5\xd3O?\xfd\xf4\xd3?'
tRp330
sS'DTC(max_depth=25)breast_cancer_LogisticRegression_bin_scaled_mono_True_ratio_0.4'
p331
g3
(g5
S'v\xd9e\x97]v\xd9?'
tRp332
sS'DTC(max_depth=2500)breast_cancer_Identity_bin_scaled_mono_True_ratio_0.2'
p333
g3
(g5
S'\x06\x16X`\x81\x05\xd6?'
tRp334
sS'DTC(max_depth=2000)breast_cancer_Summary_bin_scaled_mono_True_ratio_0.0'
p335
g3
(g5
S'E\x13M4\xd1D\xd3?'
tRp336
sS'RFC(n_estimators=1000, max_features="sqrt")breast_cancer_Summary_bin_scaled_mono_True_ratio_0.2'
p337
g3
(g5
S'\x84\x10B\x08!\x84\xd0?'
tRp338
sS'DTC(max_depth=2000)breast_cancer_Summary_bin_scaled_mono_True_ratio_0.2'
p339
g3
(g5
S'\xb6\xd6Zk\xad\xb5\xd6?'
tRp340
sS'DTC(max_depth=2000)breast_cancer_Summary_bin_scaled_mono_True_ratio_0.3'
p341
g3
(g5
S'\xc6\x18c\x8c1\xc6\xd8?'
tRp342
sS'DTC(max_depth=2000)breast_cancer_Summary_bin_scaled_mono_True_ratio_0.4'
p343
g3
(g5
S'7\xdcp\xc3\r7\xdc?'
tRp344
sS'RFC(n_estimators=2500, max_features="log2")breast_cancer_RandomForest_bin_scaled_mono_True_ratio_0.4'
p345
g3
(g5
S'4\xd1D\x13M4\xd1?'
tRp346
sS'DTC(max_depth=50)breast_cancer_Summary_bin_scaled_mono_True_ratio_0.3'
p347
g3
(g5
S'UUUUUU\xd5?'
tRp348
sS'DTC(max_depth=1000)breast_cancer_RandomReplace_bin_scaled_mono_True_ratio_0.4'
p349
g3
(g5
S'\x06\x16X`\x81\x05\xd6?'
tRp350
sS'DTC(max_depth=50)breast_cancer_Summary_bin_scaled_mono_True_ratio_0.2'
p351
g3
(g5
S'\xc6\x18c\x8c1\xc6\xd8?'
tRp352
sS'DTC(max_depth=1000)breast_cancer_RandomReplace_bin_scaled_mono_True_ratio_0.0'
p353
g3
(g5
S'\xf5\xd3O?\xfd\xf4\xd3?'
tRp354
sS'DTC(max_depth=1000)breast_cancer_RandomReplace_bin_scaled_mono_True_ratio_0.1'
p355
g3
(g5
S'7\xdcp\xc3\r7\xdc?'
tRp356
sS'DTC(max_depth=1000)breast_cancer_RandomReplace_bin_scaled_mono_True_ratio_0.2'
p357
g3
(g5
S'H\x1ey\xe4\x91G\xce?'
tRp358
sS'DTC(max_depth=1000)breast_cancer_RandomReplace_bin_scaled_mono_True_ratio_0.3'
p359
g3
(g5
S"'\x9ah\xa2\x89&\xda?"
tRp360
sS'RFC(n_estimators=10, max_features="sqrt")breast_cancer_Identity_bin_scaled_mono_True_ratio_0.4'
p361
g3
(g5
S'H\x1ey\xe4\x91G\xce?'
tRp362
sS'RFC(n_estimators=10, max_features="sqrt")breast_cancer_Identity_bin_scaled_mono_True_ratio_0.1'
p363
g3
(g5
S'\xa8\x9f~\xfa\xe9\xa7\xcf?'
tRp364
sS'RFC(n_estimators=10, max_features="sqrt")breast_cancer_Identity_bin_scaled_mono_True_ratio_0.0'
p365
g3
(g5
S'4\xd1D\x13M4\xd1?'
tRp366
sS'RFC(n_estimators=10, max_features="sqrt")breast_cancer_Identity_bin_scaled_mono_True_ratio_0.3'
p367
g3
(g5
S'4\xd1D\x13M4\xd1?'
tRp368
sS'RFC(n_estimators=2500, max_features="log2")breast_cancer_RandomForest_bin_scaled_mono_True_ratio_0.0'
p369
g3
(g5
S'4\xd1D\x13M4\xd1?'
tRp370
sS'RFC(n_estimators=2500, max_features="log2")breast_cancer_RandomForest_bin_scaled_mono_True_ratio_0.3'
p371
g3
(g5
S'4\xd1D\x13M4\xd1?'
tRp372
sS'RFC(n_estimators=500, max_features="log2")breast_cancer_Summary_bin_scaled_mono_True_ratio_0.4'
p373
g3
(g5
S'\xa5\x94RJ)\xa5\xd4?'
tRp374
sS'RFC(n_estimators=500, max_features="log2")breast_cancer_Summary_bin_scaled_mono_True_ratio_0.3'
p375
g3
(g5
S'\xf5\xd3O?\xfd\xf4\xd3?'
tRp376
sS'RFC(n_estimators=500, max_features="log2")breast_cancer_Summary_bin_scaled_mono_True_ratio_0.2'
p377
g3
(g5
S'\x84\x10B\x08!\x84\xd0?'
tRp378
sS'RFC(n_estimators=500, max_features="log2")breast_cancer_Summary_bin_scaled_mono_True_ratio_0.1'
p379
g3
(g5
S'\x84\x10B\x08!\x84\xd0?'
tRp380
sS'RFC(n_estimators=500, max_features="log2")breast_cancer_Summary_bin_scaled_mono_True_ratio_0.0'
p381
g3
(g5
S'\xe4\x91G\x1ey\xe4\xd1?'
tRp382
sS'DTC(max_depth=500)breast_cancer_Identity_bin_scaled_mono_True_ratio_0.1'
p383
g3
(g5
S'\xb6\xd6Zk\xad\xb5\xd6?'
tRp384
sS'DTC(max_depth=100)breast_cancer_RandomForest_bin_scaled_mono_True_ratio_0.1'
p385
g3
(g5
S'\xb6\xd6Zk\xad\xb5\xd6?'
tRp386
sS'DTC(max_depth=500)breast_cancer_Identity_bin_scaled_mono_True_ratio_0.3'
p387
g3
(g5
S'\xd7Zk\xad\xb5\xd6\xda?'
tRp388
sS'DTC(max_depth=500)breast_cancer_Identity_bin_scaled_mono_True_ratio_0.2'
p389
g3
(g5
S"'\x9ah\xa2\x89&\xda?"
tRp390
sS'DTC(max_depth=500)breast_cancer_Identity_bin_scaled_mono_True_ratio_0.4'
p391
g3
(g5
S'4\xd1D\x13M4\xd1?'
tRp392
sS'RFC(n_estimators=10, max_features="sqrt")breast_cancer_Summary_bin_scaled_mono_True_ratio_0.1'
p393
g3
(g5
S'H\x1ey\xe4\x91G\xce?'
tRp394
sS'RFC(n_estimators=10, max_features="sqrt")breast_cancer_Summary_bin_scaled_mono_True_ratio_0.2'
p395
g3
(g5
S'\x95RJ)\xa5\x94\xd2?'
tRp396
sS'DTC(max_depth=10)breast_cancer_SVM_bin_scaled_mono_True_ratio_0.1'
p397
g3
(g5
S'\xa5\x94RJ)\xa5\xd4?'
tRp398
sS'RFC(n_estimators=10, max_features="sqrt")breast_cancer_Summary_bin_scaled_mono_True_ratio_0.3'
p399
g3
(g5
S'\x95RJ)\xa5\x94\xd2?'
tRp400
sS'RFC(n_estimators=20, max_features="log2")breast_cancer_LogisticRegression_bin_scaled_mono_True_ratio_0.3'
p401
g3
(g5
S'\xa5\x94RJ)\xa5\xd4?'
tRp402
sS'RFC(n_estimators=20, max_features="log2")breast_cancer_LogisticRegression_bin_scaled_mono_True_ratio_0.2'
p403
g3
(g5
S'4\xd1D\x13M4\xd1?'
tRp404
sS'RFC(n_estimators=20, max_features="log2")breast_cancer_LogisticRegression_bin_scaled_mono_True_ratio_0.1'
p405
g3
(g5
S'\x84\x10B\x08!\x84\xd0?'
tRp406
sS'RFC(n_estimators=20, max_features="log2")breast_cancer_LogisticRegression_bin_scaled_mono_True_ratio_0.0'
p407
g3
(g5
S'\x95RJ)\xa5\x94\xd2?'
tRp408
sS'DTC(max_depth=25)breast_cancer_Summary_bin_scaled_mono_True_ratio_0.4'
p409
g3
(g5
S'\xd7Zk\xad\xb5\xd6\xda?'
tRp410
sS'DTC(max_depth=25)breast_cancer_Summary_bin_scaled_mono_True_ratio_0.1'
p411
g3
(g5
S'\x06\x16X`\x81\x05\xd6?'
tRp412
sS'DTC(max_depth=25)breast_cancer_Summary_bin_scaled_mono_True_ratio_0.0'
p413
g3
(g5
S'4\xd1D\x13M4\xd1?'
tRp414
sS'DTC(max_depth=25)breast_cancer_Summary_bin_scaled_mono_True_ratio_0.3'
p415
g3
(g5
S'\xb6\xd6Zk\xad\xb5\xd6?'
tRp416
sS'DTC(max_depth=25)breast_cancer_Summary_bin_scaled_mono_True_ratio_0.2'
p417
g3
(g5
S'\x16X`\x81\x05\x16\xd8?'
tRp418
sS'DTC(max_depth=20)breast_cancer_LogisticRegression_bin_scaled_mono_True_ratio_0.4'
p419
g3
(g5
S'v\xd9e\x97]v\xd9?'
tRp420
sS'DTC(max_depth=10)breast_cancer_SVM_bin_scaled_mono_True_ratio_0.2'
p421
g3
(g5
S'f\x97]v\xd9e\xd7?'
tRp422
sS'DTC(max_depth=20)breast_cancer_LogisticRegression_bin_scaled_mono_True_ratio_0.0'
p423
g3
(g5
S'\xf5\xd3O?\xfd\xf4\xd3?'
tRp424
sS'DTC(max_depth=20)breast_cancer_LogisticRegression_bin_scaled_mono_True_ratio_0.1'
p425
g3
(g5
S'\xe4\x91G\x1ey\xe4\xd1?'
tRp426
sS'DTC(max_depth=20)breast_cancer_LogisticRegression_bin_scaled_mono_True_ratio_0.2'
p427
g3
(g5
S'\x06\x16X`\x81\x05\xd6?'
tRp428
sS'DTC(max_depth=20)breast_cancer_LogisticRegression_bin_scaled_mono_True_ratio_0.3'
p429
g3
(g5
S"'\x9ah\xa2\x89&\xda?"
tRp430
sS'RFC(n_estimators=2000, max_features="sqrt")breast_cancer_SVM_bin_scaled_mono_True_ratio_0.3'
p431
g3
(g5
S'\xe4\x91G\x1ey\xe4\xd1?'
tRp432
sS'RFC(n_estimators=2000, max_features="sqrt")breast_cancer_SVM_bin_scaled_mono_True_ratio_0.2'
p433
g3
(g5
S'\x95RJ)\xa5\x94\xd2?'
tRp434
sS'RFC(n_estimators=2000, max_features="sqrt")breast_cancer_SVM_bin_scaled_mono_True_ratio_0.1'
p435
g3
(g5
S'\xe4\x91G\x1ey\xe4\xd1?'
tRp436
sS'RFC(n_estimators=2000, max_features="sqrt")breast_cancer_SVM_bin_scaled_mono_True_ratio_0.0'
p437
g3
(g5
S'E\x13M4\xd1D\xd3?'
tRp438
sS'RFC(n_estimators=2000, max_features="sqrt")breast_cancer_SVM_bin_scaled_mono_True_ratio_0.4'
p439
g3
(g5
S'\xe7\x9cs\xce9\xe7\xcc?'
tRp440
sS'RFC(n_estimators=1500, max_features="log2")breast_cancer_LogisticRegression_bin_scaled_mono_True_ratio_0.1'
p441
g3
(g5
S'4\xd1D\x13M4\xd1?'
tRp442
sS'RFC(n_estimators=1500, max_features="log2")breast_cancer_LogisticRegression_bin_scaled_mono_True_ratio_0.0'
p443
g3
(g5
S'\xe4\x91G\x1ey\xe4\xd1?'
tRp444
sS'RFC(n_estimators=1500, max_features="log2")breast_cancer_LogisticRegression_bin_scaled_mono_True_ratio_0.3'
p445
g3
(g5
S'4\xd1D\x13M4\xd1?'
tRp446
sS'RFC(n_estimators=1000, max_features="sqrt")breast_cancer_RandomForest_bin_scaled_mono_True_ratio_0.4'
p447
g3
(g5
S'4\xd1D\x13M4\xd1?'
tRp448
sS'RFC(n_estimators=1000, max_features="sqrt")breast_cancer_RandomForest_bin_scaled_mono_True_ratio_0.3'
p449
g3
(g5
S'\xe4\x91G\x1ey\xe4\xd1?'
tRp450
sS'RFC(n_estimators=1000, max_features="sqrt")breast_cancer_RandomForest_bin_scaled_mono_True_ratio_0.2'
p451
g3
(g5
S'E\x13M4\xd1D\xd3?'
tRp452
sS'RFC(n_estimators=1000, max_features="sqrt")breast_cancer_RandomForest_bin_scaled_mono_True_ratio_0.1'
p453
g3
(g5
S'\x95RJ)\xa5\x94\xd2?'
tRp454
sS'RFC(n_estimators=1000, max_features="sqrt")breast_cancer_RandomForest_bin_scaled_mono_True_ratio_0.0'
p455
g3
(g5
S'E\x13M4\xd1D\xd3?'
tRp456
sS'DTC(max_depth=10)breast_cancer_Identity_bin_scaled_mono_True_ratio_0.4'
p457
g3
(g5
S'\xe7\x9cs\xce9\xe7\xcc?'
tRp458
sS'DTC(max_depth=10)breast_cancer_Identity_bin_scaled_mono_True_ratio_0.2'
p459
g3
(g5
S'\x06\x16X`\x81\x05\xd6?'
tRp460
sS'DTC(max_depth=10)breast_cancer_Identity_bin_scaled_mono_True_ratio_0.3'
p461
g3
(g5
S"'\x9ah\xa2\x89&\xda?"
tRp462
sS'DTC(max_depth=10)breast_cancer_Identity_bin_scaled_mono_True_ratio_0.0'
p463
g3
(g5
S'UUUUUU\xd5?'
tRp464
sS'DTC(max_depth=10)breast_cancer_Identity_bin_scaled_mono_True_ratio_0.1'
p465
g3
(g5
S"'\x9ah\xa2\x89&\xda?"
tRp466
sS'RFC(n_estimators=500, max_features="log2")breast_cancer_Identity_bin_scaled_mono_True_ratio_0.0'
p467
g3
(g5
S'4\xd1D\x13M4\xd1?'
tRp468
sS'RFC(n_estimators=500, max_features="log2")breast_cancer_Identity_bin_scaled_mono_True_ratio_0.1'
p469
g3
(g5
S'4\xd1D\x13M4\xd1?'
tRp470
sS'RFC(n_estimators=500, max_features="log2")breast_cancer_Identity_bin_scaled_mono_True_ratio_0.2'
p471
g3
(g5
S'\x95RJ)\xa5\x94\xd2?'
tRp472
sS'RFC(n_estimators=500, max_features="log2")breast_cancer_Identity_bin_scaled_mono_True_ratio_0.3'
p473
g3
(g5
S'\x84\x10B\x08!\x84\xd0?'
tRp474
sS'RFC(n_estimators=500, max_features="log2")breast_cancer_Identity_bin_scaled_mono_True_ratio_0.4'
p475
g3
(g5
S'\x87\x1bn\xb8\xe1\x86\xcb?'
tRp476
sS'DTC(max_depth=1000)breast_cancer_Identity_bin_scaled_mono_True_ratio_0.2'
p477
g3
(g5
S'\xd7Zk\xad\xb5\xd6\xda?'
tRp478
sS'RFC(n_estimators=2000, max_features="sqrt")breast_cancer_Identity_bin_scaled_mono_True_ratio_0.0'
p479
g3
(g5
S'\xa8\x9f~\xfa\xe9\xa7\xcf?'
tRp480
sS'RFC(n_estimators=2000, max_features="sqrt")breast_cancer_Identity_bin_scaled_mono_True_ratio_0.1'
p481
g3
(g5
S'4\xd1D\x13M4\xd1?'
tRp482
sS'RFC(n_estimators=2000, max_features="sqrt")breast_cancer_Identity_bin_scaled_mono_True_ratio_0.2'
p483
g3
(g5
S'UUUUUU\xd5?'
tRp484
sS'RFC(n_estimators=2000, max_features="sqrt")breast_cancer_Identity_bin_scaled_mono_True_ratio_0.3'
p485
g3
(g5
S'\xe4\x91G\x1ey\xe4\xd1?'
tRp486
sS'RFC(n_estimators=2000, max_features="sqrt")breast_cancer_Identity_bin_scaled_mono_True_ratio_0.4'
p487
g3
(g5
S'H\x1ey\xe4\x91G\xce?'
tRp488
sS'DTC(max_depth=5)breast_cancer_Summary_bin_scaled_mono_True_ratio_0.2'
p489
g3
(g5
S'\xe4\x91G\x1ey\xe4\xd1?'
tRp490
sS'DTC(max_depth=1000)breast_cancer_LogisticRegression_bin_scaled_mono_True_ratio_0.2'
p491
g3
(g5
S'\xf5\xd3O?\xfd\xf4\xd3?'
tRp492
sS'DTC(max_depth=1000)breast_cancer_LogisticRegression_bin_scaled_mono_True_ratio_0.1'
p493
g3
(g5
S'UUUUUU\xd5?'
tRp494
sS'RFC(n_estimators=50, max_features="log2")breast_cancer_LogisticRegression_bin_scaled_mono_True_ratio_0.0'
p495
g3
(g5
S'\xe4\x91G\x1ey\xe4\xd1?'
tRp496
sS'RFC(n_estimators=50, max_features="log2")breast_cancer_LogisticRegression_bin_scaled_mono_True_ratio_0.1'
p497
g3
(g5
S'\xe4\x91G\x1ey\xe4\xd1?'
tRp498
sS'RFC(n_estimators=50, max_features="log2")breast_cancer_LogisticRegression_bin_scaled_mono_True_ratio_0.2'
p499
g3
(g5
S'4\xd1D\x13M4\xd1?'
tRp500
sS'DTC(max_depth=1000)breast_cancer_LogisticRegression_bin_scaled_mono_True_ratio_0.0'
p501
g3
(g5
S'\x95RJ)\xa5\x94\xd2?'
tRp502
sS'RFC(n_estimators=50, max_features="log2")breast_cancer_LogisticRegression_bin_scaled_mono_True_ratio_0.4'
p503
g3
(g5
S'\xa8\x9f~\xfa\xe9\xa7\xcf?'
tRp504
sS'RFC(n_estimators=100, max_features="sqrt")breast_cancer_Summary_bin_scaled_mono_True_ratio_0.4'
p505
g3
(g5
S'UUUUUU\xd5?'
tRp506
sS'DTC(max_depth=100)breast_cancer_Summary_bin_scaled_mono_True_ratio_0.2'
p507
g3
(g5
S'UUUUUU\xd5?'
tRp508
sS'RFC(n_estimators=10, max_features="sqrt")breast_cancer_RandomReplace_bin_scaled_mono_True_ratio_0.4'
p509
g3
(g5
S'\x87\x1bn\xb8\xe1\x86\xcb?'
tRp510
sS'RFC(n_estimators=10, max_features="sqrt")breast_cancer_RandomReplace_bin_scaled_mono_True_ratio_0.3'
p511
g3
(g5
S'E\x13M4\xd1D\xd3?'
tRp512
sS'RFC(n_estimators=10, max_features="sqrt")breast_cancer_RandomReplace_bin_scaled_mono_True_ratio_0.2'
p513
g3
(g5
S'H\x1ey\xe4\x91G\xce?'
tRp514
sS'RFC(n_estimators=10, max_features="sqrt")breast_cancer_RandomReplace_bin_scaled_mono_True_ratio_0.1'
p515
g3
(g5
S'H\x1ey\xe4\x91G\xce?'
tRp516
sS'RFC(n_estimators=10, max_features="sqrt")breast_cancer_RandomReplace_bin_scaled_mono_True_ratio_0.0'
p517
g3
(g5
S'\x84\x10B\x08!\x84\xd0?'
tRp518
sS'RFC(n_estimators=1500, max_features="log2")breast_cancer_Summary_bin_scaled_mono_True_ratio_0.1'
p519
g3
(g5
S'\x84\x10B\x08!\x84\xd0?'
tRp520
sS'RFC(n_estimators=1500, max_features="log2")breast_cancer_Summary_bin_scaled_mono_True_ratio_0.0'
p521
g3
(g5
S'4\xd1D\x13M4\xd1?'
tRp522
sS'RFC(n_estimators=1500, max_features="log2")breast_cancer_Summary_bin_scaled_mono_True_ratio_0.3'
p523
g3
(g5
S'\xa5\x94RJ)\xa5\xd4?'
tRp524
sS'RFC(n_estimators=1500, max_features="log2")breast_cancer_Summary_bin_scaled_mono_True_ratio_0.2'
p525
g3
(g5
S'\x84\x10B\x08!\x84\xd0?'
tRp526
sS'RFC(n_estimators=1000, max_features="sqrt")breast_cancer_RandomReplace_bin_scaled_mono_True_ratio_0.1'
p527
g3
(g5
S'\xe4\x91G\x1ey\xe4\xd1?'
tRp528
sS'RFC(n_estimators=1000, max_features="sqrt")breast_cancer_RandomReplace_bin_scaled_mono_True_ratio_0.0'
p529
g3
(g5
S'\x95RJ)\xa5\x94\xd2?'
tRp530
sS'RFC(n_estimators=1000, max_features="sqrt")breast_cancer_RandomReplace_bin_scaled_mono_True_ratio_0.3'
p531
g3
(g5
S'\xf5\xd3O?\xfd\xf4\xd3?'
tRp532
sS'RFC(n_estimators=1000, max_features="sqrt")breast_cancer_RandomReplace_bin_scaled_mono_True_ratio_0.2'
p533
g3
(g5
S'\xe4\x91G\x1ey\xe4\xd1?'
tRp534
sS'RFC(n_estimators=1000, max_features="sqrt")breast_cancer_RandomReplace_bin_scaled_mono_True_ratio_0.4'
p535
g3
(g5
S'\x87\x1bn\xb8\xe1\x86\xcb?'
tRp536
sS'DTC(max_depth=50)breast_cancer_SVM_bin_scaled_mono_True_ratio_0.4'
p537
g3
(g5
S'E\x13M4\xd1D\xd3?'
tRp538
sS'DTC(max_depth=50)breast_cancer_SVM_bin_scaled_mono_True_ratio_0.1'
p539
g3
(g5
S'\xb6\xd6Zk\xad\xb5\xd6?'
tRp540
sS'DTC(max_depth=50)breast_cancer_SVM_bin_scaled_mono_True_ratio_0.0'
p541
g3
(g5
S'E\x13M4\xd1D\xd3?'
tRp542
sS'DTC(max_depth=50)breast_cancer_SVM_bin_scaled_mono_True_ratio_0.3'
p543
g3
(g5
S'\xc6\x18c\x8c1\xc6\xd8?'
tRp544
sS'DTC(max_depth=50)breast_cancer_SVM_bin_scaled_mono_True_ratio_0.2'
p545
g3
(g5
S'\xb6\xd6Zk\xad\xb5\xd6?'
tRp546
sS'DTC(max_depth=2000)breast_cancer_Summary_bin_scaled_mono_True_ratio_0.1'
p547
g3
(g5
S'E\x13M4\xd1D\xd3?'
tRp548
sS'DTC(max_depth=1000)breast_cancer_SVM_bin_scaled_mono_True_ratio_0.3'
p549
g3
(g5
S'v\xd9e\x97]v\xd9?'
tRp550
sS'DTC(max_depth=1000)breast_cancer_SVM_bin_scaled_mono_True_ratio_0.2'
p551
g3
(g5
S'f\x97]v\xd9e\xd7?'
tRp552
sS'DTC(max_depth=1000)breast_cancer_SVM_bin_scaled_mono_True_ratio_0.1'
p553
g3
(g5
S'\x06\x16X`\x81\x05\xd6?'
tRp554
sS'DTC(max_depth=1000)breast_cancer_SVM_bin_scaled_mono_True_ratio_0.0'
p555
g3
(g5
S'\x95RJ)\xa5\x94\xd2?'
tRp556
sS'DTC(max_depth=1000)breast_cancer_SVM_bin_scaled_mono_True_ratio_0.4'
p557
g3
(g5
S'\xf5\xd3O?\xfd\xf4\xd3?'
tRp558
sS'DTC(max_depth=50)breast_cancer_Identity_bin_scaled_mono_True_ratio_0.3'
p559
g3
(g5
S"'\x9ah\xa2\x89&\xda?"
tRp560
sS'DTC(max_depth=500)breast_cancer_RandomForest_bin_scaled_mono_True_ratio_0.4'
p561
g3
(g5
S'\xf5\xd3O?\xfd\xf4\xd3?'
tRp562
sS'DTC(max_depth=500)breast_cancer_RandomForest_bin_scaled_mono_True_ratio_0.1'
p563
g3
(g5
S'\xb6\xd6Zk\xad\xb5\xd6?'
tRp564
sS'DTC(max_depth=500)breast_cancer_RandomForest_bin_scaled_mono_True_ratio_0.0'
p565
g3
(g5
S'4\xd1D\x13M4\xd1?'
tRp566
sS'DTC(max_depth=500)breast_cancer_RandomForest_bin_scaled_mono_True_ratio_0.3'
p567
g3
(g5
S'\xf5\xd3O?\xfd\xf4\xd3?'
tRp568
sS'DTC(max_depth=500)breast_cancer_RandomForest_bin_scaled_mono_True_ratio_0.2'
p569
g3
(g5
S'UUUUUU\xd5?'
tRp570
sS'DTC(max_depth=50)breast_cancer_RandomForest_bin_scaled_mono_True_ratio_0.4'
p571
g3
(g5
S'\x06\x16X`\x81\x05\xd6?'
tRp572
sS'DTC(max_depth=50)breast_cancer_RandomForest_bin_scaled_mono_True_ratio_0.2'
p573
g3
(g5
S'\xd7Zk\xad\xb5\xd6\xda?'
tRp574
sS'DTC(max_depth=50)breast_cancer_RandomForest_bin_scaled_mono_True_ratio_0.3'
p575
g3
(g5
S'\x06\x16X`\x81\x05\xd6?'
tRp576
sS'DTC(max_depth=50)breast_cancer_RandomForest_bin_scaled_mono_True_ratio_0.0'
p577
g3
(g5
S'\xf5\xd3O?\xfd\xf4\xd3?'
tRp578
sS'DTC(max_depth=50)breast_cancer_RandomForest_bin_scaled_mono_True_ratio_0.1'
p579
g3
(g5
S'\xa5\x94RJ)\xa5\xd4?'
tRp580
sS'DTC(max_depth=5)breast_cancer_RandomReplace_bin_scaled_mono_True_ratio_0.1'
p581
g3
(g5
S'f\x97]v\xd9e\xd7?'
tRp582
sS'DTC(max_depth=5)breast_cancer_RandomReplace_bin_scaled_mono_True_ratio_0.0'
p583
g3
(g5
S'\x95RJ)\xa5\x94\xd2?'
tRp584
sS'DTC(max_depth=5)breast_cancer_RandomReplace_bin_scaled_mono_True_ratio_0.3'
p585
g3
(g5
S'UUUUUU\xd5?'
tRp586
sS'DTC(max_depth=5)breast_cancer_RandomReplace_bin_scaled_mono_True_ratio_0.2'
p587
g3
(g5
S'\xe7\x9cs\xce9\xe7\xcc?'
tRp588
sS'DTC(max_depth=5)breast_cancer_RandomReplace_bin_scaled_mono_True_ratio_0.4'
p589
g3
(g5
S'\x84\x10B\x08!\x84\xd0?'
tRp590
sS'RFC(n_estimators=50, max_features="log2")breast_cancer_Identity_bin_scaled_mono_True_ratio_0.2'
p591
g3
(g5
S'E\x13M4\xd1D\xd3?'
tRp592
sS'DTC(max_depth=100)breast_cancer_RandomReplace_bin_scaled_mono_True_ratio_0.3'
p593
g3
(g5
S"'\x9ah\xa2\x89&\xda?"
tRp594
sS'DTC(max_depth=100)breast_cancer_RandomReplace_bin_scaled_mono_True_ratio_0.2'
p595
g3
(g5
S'\x84\x10B\x08!\x84\xd0?'
tRp596
sS'DTC(max_depth=100)breast_cancer_RandomReplace_bin_scaled_mono_True_ratio_0.1'
p597
g3
(g5
S'f\x97]v\xd9e\xd7?'
tRp598
sS'DTC(max_depth=100)breast_cancer_RandomReplace_bin_scaled_mono_True_ratio_0.0'
p599
g3
(g5
S'E\x13M4\xd1D\xd3?'
tRp600
sS'RFC(n_estimators=50, max_features="log2")breast_cancer_Identity_bin_scaled_mono_True_ratio_0.1'
p601
g3
(g5
S'\xe4\x91G\x1ey\xe4\xd1?'
tRp602
sS'DTC(max_depth=100)breast_cancer_RandomReplace_bin_scaled_mono_True_ratio_0.4'
p603
g3
(g5
S'UUUUUU\xd5?'
tRp604
sS'RFC(n_estimators=50, max_features="log2")breast_cancer_Identity_bin_scaled_mono_True_ratio_0.0'
p605
g3
(g5
S'\xe4\x91G\x1ey\xe4\xd1?'
tRp606
sS'RFC(n_estimators=10, max_features="sqrt")breast_cancer_RandomForest_bin_scaled_mono_True_ratio_0.1'
p607
g3
(g5
S"'\x9ah\xa2\x89&\xca?"
tRp608
sS'RFC(n_estimators=10, max_features="sqrt")breast_cancer_RandomForest_bin_scaled_mono_True_ratio_0.0'
p609
g3
(g5
S'\xe4\x91G\x1ey\xe4\xd1?'
tRp610
sS'RFC(n_estimators=10, max_features="sqrt")breast_cancer_RandomForest_bin_scaled_mono_True_ratio_0.3'
p611
g3
(g5
S'\x84\x10B\x08!\x84\xd0?'
tRp612
sS'RFC(n_estimators=10, max_features="sqrt")breast_cancer_RandomForest_bin_scaled_mono_True_ratio_0.2'
p613
g3
(g5
S'4\xd1D\x13M4\xd1?'
tRp614
sS'RFC(n_estimators=100, max_features="sqrt")breast_cancer_SVM_bin_scaled_mono_True_ratio_0.1'
p615
g3
(g5
S'\xe4\x91G\x1ey\xe4\xd1?'
tRp616
sS'RFC(n_estimators=10, max_features="sqrt")breast_cancer_RandomForest_bin_scaled_mono_True_ratio_0.4'
p617
g3
(g5
S'\x95RJ)\xa5\x94\xd2?'
tRp618
sS'RFC(n_estimators=100, max_features="sqrt")breast_cancer_SVM_bin_scaled_mono_True_ratio_0.3'
p619
g3
(g5
S'\x95RJ)\xa5\x94\xd2?'
tRp620
sS'RFC(n_estimators=100, max_features="sqrt")breast_cancer_SVM_bin_scaled_mono_True_ratio_0.2'
p621
g3
(g5
S'4\xd1D\x13M4\xd1?'
tRp622
sS'RFC(n_estimators=500, max_features="log2")breast_cancer_SVM_bin_scaled_mono_True_ratio_0.3'
p623
g3
(g5
S'\xe4\x91G\x1ey\xe4\xd1?'
tRp624
sS'RFC(n_estimators=500, max_features="log2")breast_cancer_SVM_bin_scaled_mono_True_ratio_0.2'
p625
g3
(g5
S'\x95RJ)\xa5\x94\xd2?'
tRp626
sS'RFC(n_estimators=500, max_features="log2")breast_cancer_SVM_bin_scaled_mono_True_ratio_0.1'
p627
g3
(g5
S'4\xd1D\x13M4\xd1?'
tRp628
sS'RFC(n_estimators=500, max_features="log2")breast_cancer_SVM_bin_scaled_mono_True_ratio_0.0'
p629
g3
(g5
S'\xe4\x91G\x1ey\xe4\xd1?'
tRp630
sS'RFC(n_estimators=500, max_features="log2")breast_cancer_SVM_bin_scaled_mono_True_ratio_0.4'
p631
g3
(g5
S'\xa8\x9f~\xfa\xe9\xa7\xcf?'
tRp632
sS'RFC(n_estimators=100, max_features="sqrt")breast_cancer_Identity_bin_scaled_mono_True_ratio_0.2'
p633
g3
(g5
S'\xa5\x94RJ)\xa5\xd4?'
tRp634
sS'RFC(n_estimators=100, max_features="sqrt")breast_cancer_Identity_bin_scaled_mono_True_ratio_0.3'
p635
g3
(g5
S'\xe7\x9cs\xce9\xe7\xcc?'
tRp636
sS'RFC(n_estimators=100, max_features="sqrt")breast_cancer_Identity_bin_scaled_mono_True_ratio_0.0'
p637
g3
(g5
S'\xe4\x91G\x1ey\xe4\xd1?'
tRp638
sS'RFC(n_estimators=100, max_features="sqrt")breast_cancer_Identity_bin_scaled_mono_True_ratio_0.1'
p639
g3
(g5
S'\x95RJ)\xa5\x94\xd2?'
tRp640
sS'RFC(n_estimators=100, max_features="sqrt")breast_cancer_Identity_bin_scaled_mono_True_ratio_0.4'
p641
g3
(g5
S'H\x1ey\xe4\x91G\xce?'
tRp642
sS'DTC(max_depth=20)breast_cancer_SVM_bin_scaled_mono_True_ratio_0.2'
p643
g3
(g5
S'f\x97]v\xd9e\xd7?'
tRp644
sS'RFC(n_estimators=25, max_features="sqrt")breast_cancer_SVM_bin_scaled_mono_True_ratio_0.0'
p645
g3
(g5
S'\xa5\x94RJ)\xa5\xd4?'
tRp646
sS'RFC(n_estimators=25, max_features="sqrt")breast_cancer_SVM_bin_scaled_mono_True_ratio_0.1'
p647
g3
(g5
S'\x84\x10B\x08!\x84\xd0?'
tRp648
sS'RFC(n_estimators=25, max_features="sqrt")breast_cancer_SVM_bin_scaled_mono_True_ratio_0.2'
p649
g3
(g5
S'4\xd1D\x13M4\xd1?'
tRp650
sS'RFC(n_estimators=25, max_features="sqrt")breast_cancer_SVM_bin_scaled_mono_True_ratio_0.3'
p651
g3
(g5
S'\x95RJ)\xa5\x94\xd2?'
tRp652
sS'DTC(max_depth=500)breast_cancer_SVM_bin_scaled_mono_True_ratio_0.0'
p653
g3
(g5
S'\xe4\x91G\x1ey\xe4\xd1?'
tRp654
sS'DTC(max_depth=500)breast_cancer_SVM_bin_scaled_mono_True_ratio_0.1'
p655
g3
(g5
S'\x06\x16X`\x81\x05\xd6?'
tRp656
sS'DTC(max_depth=20)breast_cancer_SVM_bin_scaled_mono_True_ratio_0.0'
p657
g3
(g5
S'4\xd1D\x13M4\xd1?'
tRp658
sS'DTC(max_depth=20)breast_cancer_SVM_bin_scaled_mono_True_ratio_0.1'
p659
g3
(g5
S'\x06\x16X`\x81\x05\xd6?'
tRp660
sS'RFC(n_estimators=25, max_features="sqrt")breast_cancer_Summary_bin_scaled_mono_True_ratio_0.4'
p661
g3
(g5
S'E\x13M4\xd1D\xd3?'
tRp662
sS'RFC(n_estimators=25, max_features="sqrt")breast_cancer_Summary_bin_scaled_mono_True_ratio_0.0'
p663
g3
(g5
S'\xa8\x9f~\xfa\xe9\xa7\xcf?'
tRp664
sS'RFC(n_estimators=25, max_features="sqrt")breast_cancer_Summary_bin_scaled_mono_True_ratio_0.1'
p665
g3
(g5
S'\xa8\x9f~\xfa\xe9\xa7\xcf?'
tRp666
sS'RFC(n_estimators=25, max_features="sqrt")breast_cancer_Summary_bin_scaled_mono_True_ratio_0.2'
p667
g3
(g5
S'\x95RJ)\xa5\x94\xd2?'
tRp668
sS'RFC(n_estimators=25, max_features="sqrt")breast_cancer_Summary_bin_scaled_mono_True_ratio_0.3'
p669
g3
(g5
S'\x06\x16X`\x81\x05\xd6?'
tRp670
sS'DTC(max_depth=2500)breast_cancer_SVM_bin_scaled_mono_True_ratio_0.3'
p671
g3
(g5
S'\xc6\x18c\x8c1\xc6\xd8?'
tRp672
sS'DTC(max_depth=2500)breast_cancer_SVM_bin_scaled_mono_True_ratio_0.2'
p673
g3
(g5
S'\xb6\xd6Zk\xad\xb5\xd6?'
tRp674
sS'DTC(max_depth=2500)breast_cancer_SVM_bin_scaled_mono_True_ratio_0.1'
p675
g3
(g5
S'\xf5\xd3O?\xfd\xf4\xd3?'
tRp676
sS'DTC(max_depth=2500)breast_cancer_SVM_bin_scaled_mono_True_ratio_0.0'
p677
g3
(g5
S'\xa5\x94RJ)\xa5\xd4?'
tRp678
sS'DTC(max_depth=2500)breast_cancer_SVM_bin_scaled_mono_True_ratio_0.4'
p679
g3
(g5
S'E\x13M4\xd1D\xd3?'
tRp680
sS'DTC(max_depth=500)breast_cancer_Identity_bin_scaled_mono_True_ratio_0.0'
p681
g3
(g5
S'\xf5\xd3O?\xfd\xf4\xd3?'
tRp682
sS'DTC(max_depth=50)breast_cancer_LogisticRegression_bin_scaled_mono_True_ratio_0.4'
p683
g3
(g5
S'\xc6\x18c\x8c1\xc6\xd8?'
tRp684
sS'DTC(max_depth=50)breast_cancer_LogisticRegression_bin_scaled_mono_True_ratio_0.1'
p685
g3
(g5
S'UUUUUU\xd5?'
tRp686
sS'DTC(max_depth=50)breast_cancer_LogisticRegression_bin_scaled_mono_True_ratio_0.0'
p687
g3
(g5
S'\xf5\xd3O?\xfd\xf4\xd3?'
tRp688
sS'DTC(max_depth=50)breast_cancer_LogisticRegression_bin_scaled_mono_True_ratio_0.3'
p689
g3
(g5
S'f\x97]v\xd9e\xd7?'
tRp690
sS'DTC(max_depth=50)breast_cancer_LogisticRegression_bin_scaled_mono_True_ratio_0.2'
p691
g3
(g5
S'E\x13M4\xd1D\xd3?'
tRp692
sS'RFC(n_estimators=1500, max_features="log2")breast_cancer_RandomForest_bin_scaled_mono_True_ratio_0.4'
p693
g3
(g5
S'4\xd1D\x13M4\xd1?'
tRp694
sS'RFC(n_estimators=1500, max_features="log2")breast_cancer_RandomForest_bin_scaled_mono_True_ratio_0.2'
p695
g3
(g5
S'\x95RJ)\xa5\x94\xd2?'
tRp696
sS'RFC(n_estimators=1500, max_features="log2")breast_cancer_RandomForest_bin_scaled_mono_True_ratio_0.3'
p697
g3
(g5
S'\x95RJ)\xa5\x94\xd2?'
tRp698
sS'RFC(n_estimators=1500, max_features="log2")breast_cancer_RandomForest_bin_scaled_mono_True_ratio_0.0'
p699
g3
(g5
S'E\x13M4\xd1D\xd3?'
tRp700
sS'RFC(n_estimators=1500, max_features="log2")breast_cancer_RandomForest_bin_scaled_mono_True_ratio_0.1'
p701
g3
(g5
S'4\xd1D\x13M4\xd1?'
tRp702
sS'DTC(max_depth=100)breast_cancer_Identity_bin_scaled_mono_True_ratio_0.4'
p703
g3
(g5
S'\x95RJ)\xa5\x94\xd2?'
tRp704
sS'DTC(max_depth=100)breast_cancer_Identity_bin_scaled_mono_True_ratio_0.1'
p705
g3
(g5
S'\xc6\x18c\x8c1\xc6\xd8?'
tRp706
sS'DTC(max_depth=100)breast_cancer_Identity_bin_scaled_mono_True_ratio_0.0'
p707
g3
(g5
S'\xf5\xd3O?\xfd\xf4\xd3?'
tRp708
sS'DTC(max_depth=100)breast_cancer_Identity_bin_scaled_mono_True_ratio_0.3'
p709
g3
(g5
S"'\x9ah\xa2\x89&\xda?"
tRp710
sS'DTC(max_depth=100)breast_cancer_Identity_bin_scaled_mono_True_ratio_0.2'
p711
g3
(g5
S'H\x1ey\xe4\x91G\xde?'
tRp712
sS'RFC(n_estimators=500, max_features="log2")breast_cancer_RandomForest_bin_scaled_mono_True_ratio_0.4'
p713
g3
(g5
S'\xe4\x91G\x1ey\xe4\xd1?'
tRp714
sS'RFC(n_estimators=500, max_features="log2")breast_cancer_RandomForest_bin_scaled_mono_True_ratio_0.0'
p715
g3
(g5
S'\xe4\x91G\x1ey\xe4\xd1?'
tRp716
sS'RFC(n_estimators=500, max_features="log2")breast_cancer_RandomForest_bin_scaled_mono_True_ratio_0.1'
p717
g3
(g5
S'\xe4\x91G\x1ey\xe4\xd1?'
tRp718
sS'RFC(n_estimators=500, max_features="log2")breast_cancer_RandomForest_bin_scaled_mono_True_ratio_0.2'
p719
g3
(g5
S'\x95RJ)\xa5\x94\xd2?'
tRp720
sS'RFC(n_estimators=500, max_features="log2")breast_cancer_RandomForest_bin_scaled_mono_True_ratio_0.3'
p721
g3
(g5
S'4\xd1D\x13M4\xd1?'
tRp722
sS'RFC(n_estimators=10, max_features="sqrt")breast_cancer_SVM_bin_scaled_mono_True_ratio_0.4'
p723
g3
(g5
S"'\x9ah\xa2\x89&\xca?"
tRp724
sS'RFC(n_estimators=10, max_features="sqrt")breast_cancer_SVM_bin_scaled_mono_True_ratio_0.0'
p725
g3
(g5
S'\x95RJ)\xa5\x94\xd2?'
tRp726
sS'RFC(n_estimators=10, max_features="sqrt")breast_cancer_SVM_bin_scaled_mono_True_ratio_0.1'
p727
g3
(g5
S'\xe4\x91G\x1ey\xe4\xd1?'
tRp728
sS'RFC(n_estimators=10, max_features="sqrt")breast_cancer_SVM_bin_scaled_mono_True_ratio_0.2'
p729
g3
(g5
S'\x84\x10B\x08!\x84\xd0?'
tRp730
sS'RFC(n_estimators=10, max_features="sqrt")breast_cancer_SVM_bin_scaled_mono_True_ratio_0.3'
p731
g3
(g5
S'4\xd1D\x13M4\xd1?'
tRp732
sS'RFC(n_estimators=2500, max_features="log2")breast_cancer_RandomReplace_bin_scaled_mono_True_ratio_0.3'
p733
g3
(g5
S'\xf5\xd3O?\xfd\xf4\xd3?'
tRp734
sS'RFC(n_estimators=2500, max_features="log2")breast_cancer_RandomReplace_bin_scaled_mono_True_ratio_0.2'
p735
g3
(g5
S'\xe4\x91G\x1ey\xe4\xd1?'
tRp736
sS'RFC(n_estimators=2500, max_features="log2")breast_cancer_RandomReplace_bin_scaled_mono_True_ratio_0.1'
p737
g3
(g5
S'4\xd1D\x13M4\xd1?'
tRp738
sS'RFC(n_estimators=2500, max_features="log2")breast_cancer_RandomReplace_bin_scaled_mono_True_ratio_0.0'
p739
g3
(g5
S'\x95RJ)\xa5\x94\xd2?'
tRp740
sS'RFC(n_estimators=2500, max_features="log2")breast_cancer_RandomReplace_bin_scaled_mono_True_ratio_0.4'
p741
g3
(g5
S'\x87\x1bn\xb8\xe1\x86\xcb?'
tRp742
sS'DTC(max_depth=20)breast_cancer_RandomReplace_bin_scaled_mono_True_ratio_0.1'
p743
g3
(g5
S'v\xd9e\x97]v\xd9?'
tRp744
sS'DTC(max_depth=20)breast_cancer_RandomReplace_bin_scaled_mono_True_ratio_0.0'
p745
g3
(g5
S'E\x13M4\xd1D\xd3?'
tRp746
sS'DTC(max_depth=20)breast_cancer_RandomReplace_bin_scaled_mono_True_ratio_0.3'
p747
g3
(g5
S'\xd7Zk\xad\xb5\xd6\xda?'
tRp748
sS'DTC(max_depth=20)breast_cancer_RandomReplace_bin_scaled_mono_True_ratio_0.2'
p749
g3
(g5
S'\x84\x10B\x08!\x84\xd0?'
tRp750
sS'DTC(max_depth=20)breast_cancer_RandomReplace_bin_scaled_mono_True_ratio_0.4'
p751
g3
(g5
S'f\x97]v\xd9e\xd7?'
tRp752
sS'RFC(n_estimators=1000, max_features="sqrt")breast_cancer_SVM_bin_scaled_mono_True_ratio_0.4'
p753
g3
(g5
S'H\x1ey\xe4\x91G\xce?'
tRp754
sS'DTC(max_depth=1000)breast_cancer_LogisticRegression_bin_scaled_mono_True_ratio_0.3'
p755
g3
(g5
S'v\xd9e\x97]v\xd9?'
tRp756
sS'RFC(n_estimators=2500, max_features="log2")breast_cancer_LogisticRegression_bin_scaled_mono_True_ratio_0.2'
p757
g3
(g5
S'\x84\x10B\x08!\x84\xd0?'
tRp758
sS'RFC(n_estimators=2500, max_features="log2")breast_cancer_LogisticRegression_bin_scaled_mono_True_ratio_0.3'
p759
g3
(g5
S'\x84\x10B\x08!\x84\xd0?'
tRp760
sS'RFC(n_estimators=2500, max_features="log2")breast_cancer_LogisticRegression_bin_scaled_mono_True_ratio_0.0'
p761
g3
(g5
S'\xe4\x91G\x1ey\xe4\xd1?'
tRp762
sS'RFC(n_estimators=2500, max_features="log2")breast_cancer_LogisticRegression_bin_scaled_mono_True_ratio_0.1'
p763
g3
(g5
S'4\xd1D\x13M4\xd1?'
tRp764
sS'RFC(n_estimators=1000, max_features="sqrt")breast_cancer_SVM_bin_scaled_mono_True_ratio_0.2'
p765
g3
(g5
S'\x95RJ)\xa5\x94\xd2?'
tRp766
sS'RFC(n_estimators=1000, max_features="sqrt")breast_cancer_SVM_bin_scaled_mono_True_ratio_0.3'
p767
g3
(g5
S'\xe4\x91G\x1ey\xe4\xd1?'
tRp768
sS'RFC(n_estimators=2500, max_features="log2")breast_cancer_LogisticRegression_bin_scaled_mono_True_ratio_0.4'
p769
g3
(g5
S'\xa8\x9f~\xfa\xe9\xa7\xcf?'
tRp770
sS'RFC(n_estimators=1000, max_features="sqrt")breast_cancer_SVM_bin_scaled_mono_True_ratio_0.1'
p771
g3
(g5
S'4\xd1D\x13M4\xd1?'
tRp772
sS'RFC(n_estimators=20, max_features="log2")breast_cancer_LogisticRegression_bin_scaled_mono_True_ratio_0.4'
p773
g3
(g5
S'H\x1ey\xe4\x91G\xce?'
tRp774
sS'RFC(n_estimators=1000, max_features="sqrt")breast_cancer_SVM_bin_scaled_mono_True_ratio_0.0'
p775
g3
(g5
S'\xe4\x91G\x1ey\xe4\xd1?'
tRp776
sS'DTC(max_depth=100)breast_cancer_LogisticRegression_bin_scaled_mono_True_ratio_0.2'
p777
g3
(g5
S'E\x13M4\xd1D\xd3?'
tRp778
sS'DTC(max_depth=2000)breast_cancer_RandomForest_bin_scaled_mono_True_ratio_0.1'
p779
g3
(g5
S'\x06\x16X`\x81\x05\xd6?'
tRp780
sS'RFC(n_estimators=100, max_features="sqrt")breast_cancer_LogisticRegression_bin_scaled_mono_True_ratio_0.4'
p781
g3
(g5
S'\xe7\x9cs\xce9\xe7\xcc?'
tRp782
sS'DTC(max_depth=2000)breast_cancer_RandomForest_bin_scaled_mono_True_ratio_0.0'
p783
g3
(g5
S'E\x13M4\xd1D\xd3?'
tRp784
sS'DTC(max_depth=25)breast_cancer_RandomForest_bin_scaled_mono_True_ratio_0.0'
p785
g3
(g5
S'\xf5\xd3O?\xfd\xf4\xd3?'
tRp786
sS'RFC(n_estimators=10, max_features="sqrt")breast_cancer_Identity_bin_scaled_mono_True_ratio_0.2'
p787
g3
(g5
S'\x95RJ)\xa5\x94\xd2?'
tRp788
sS'DTC(max_depth=25)breast_cancer_SVM_bin_scaled_mono_True_ratio_0.1'
p789
g3
(g5
S'\x06\x16X`\x81\x05\xd6?'
tRp790
sS'DTC(max_depth=25)breast_cancer_RandomForest_bin_scaled_mono_True_ratio_0.1'
p791
g3
(g5
S'\xb6\xd6Zk\xad\xb5\xd6?'
tRp792
sS'DTC(max_depth=10)breast_cancer_RandomReplace_bin_scaled_mono_True_ratio_0.2'
p793
g3
(g5
S'\xa8\x9f~\xfa\xe9\xa7\xcf?'
tRp794
sS'DTC(max_depth=10)breast_cancer_RandomReplace_bin_scaled_mono_True_ratio_0.3'
p795
g3
(g5
S'\xd7Zk\xad\xb5\xd6\xda?'
tRp796
sS'DTC(max_depth=10)breast_cancer_RandomReplace_bin_scaled_mono_True_ratio_0.0'
p797
g3
(g5
S'4\xd1D\x13M4\xd1?'
tRp798
sS'DTC(max_depth=10)breast_cancer_RandomReplace_bin_scaled_mono_True_ratio_0.1'
p799
g3
(g5
S'\x16X`\x81\x05\x16\xd8?'
tRp800
sS'DTC(max_depth=10)breast_cancer_RandomReplace_bin_scaled_mono_True_ratio_0.4'
p801
g3
(g5
S'v\xd9e\x97]v\xd9?'
tRp802
sS'DTC(max_depth=25)breast_cancer_SVM_bin_scaled_mono_True_ratio_0.4'
p803
g3
(g5
S'E\x13M4\xd1D\xd3?'
tRp804
sS'DTC(max_depth=100)breast_cancer_SVM_bin_scaled_mono_True_ratio_0.0'
p805
g3
(g5
S'E\x13M4\xd1D\xd3?'
tRp806
sS'DTC(max_depth=100)breast_cancer_SVM_bin_scaled_mono_True_ratio_0.1'
p807
g3
(g5
S'\xa5\x94RJ)\xa5\xd4?'
tRp808
sS'DTC(max_depth=100)breast_cancer_SVM_bin_scaled_mono_True_ratio_0.2'
p809
g3
(g5
S'f\x97]v\xd9e\xd7?'
tRp810
sS'DTC(max_depth=100)breast_cancer_SVM_bin_scaled_mono_True_ratio_0.3'
p811
g3
(g5
S'f\x97]v\xd9e\xd7?'
tRp812
sS'DTC(max_depth=100)breast_cancer_SVM_bin_scaled_mono_True_ratio_0.4'
p813
g3
(g5
S'E\x13M4\xd1D\xd3?'
tRp814
sS'DTC(max_depth=20)breast_cancer_Identity_bin_scaled_mono_True_ratio_0.3'
p815
g3
(g5
S'\xd7Zk\xad\xb5\xd6\xda?'
tRp816
sS'DTC(max_depth=20)breast_cancer_Identity_bin_scaled_mono_True_ratio_0.2'
p817
g3
(g5
S'\xd7Zk\xad\xb5\xd6\xda?'
tRp818
sS'DTC(max_depth=20)breast_cancer_Identity_bin_scaled_mono_True_ratio_0.1'
p819
g3
(g5
S'7\xdcp\xc3\r7\xdc?'
tRp820
sS'DTC(max_depth=20)breast_cancer_Identity_bin_scaled_mono_True_ratio_0.0'
p821
g3
(g5
S'\xa5\x94RJ)\xa5\xd4?'
tRp822
sS'DTC(max_depth=20)breast_cancer_Identity_bin_scaled_mono_True_ratio_0.4'
p823
g3
(g5
S'\xe7\x9cs\xce9\xe7\xcc?'
tRp824
sS'DTC(max_depth=5)breast_cancer_LogisticRegression_bin_scaled_mono_True_ratio_0.0'
p825
g3
(g5
S'\x95RJ)\xa5\x94\xd2?'
tRp826
sS'DTC(max_depth=5)breast_cancer_LogisticRegression_bin_scaled_mono_True_ratio_0.1'
p827
g3
(g5
S'4\xd1D\x13M4\xd1?'
tRp828
sS'DTC(max_depth=5)breast_cancer_LogisticRegression_bin_scaled_mono_True_ratio_0.2'
p829
g3
(g5
S'\x87\x1bn\xb8\xe1\x86\xcb?'
tRp830
sS'DTC(max_depth=5)breast_cancer_LogisticRegression_bin_scaled_mono_True_ratio_0.3'
p831
g3
(g5
S'UUUUUU\xd5?'
tRp832
sS'DTC(max_depth=5)breast_cancer_LogisticRegression_bin_scaled_mono_True_ratio_0.4'
p833
g3
(g5
S'\xf5\xd3O?\xfd\xf4\xd3?'
tRp834
sS'RFC(n_estimators=10, max_features="sqrt")breast_cancer_LogisticRegression_bin_scaled_mono_True_ratio_0.4'
p835
g3
(g5
S'\xe7\x9cs\xce9\xe7\xcc?'
tRp836
sS'DTC(max_depth=10)breast_cancer_LogisticRegression_bin_scaled_mono_True_ratio_0.1'
p837
g3
(g5
S'E\x13M4\xd1D\xd3?'
tRp838
sS'DTC(max_depth=10)breast_cancer_LogisticRegression_bin_scaled_mono_True_ratio_0.0'
p839
g3
(g5
S'\x95RJ)\xa5\x94\xd2?'
tRp840
sS'DTC(max_depth=10)breast_cancer_LogisticRegression_bin_scaled_mono_True_ratio_0.3'
p841
g3
(g5
S'\x06\x16X`\x81\x05\xd6?'
tRp842
sS'DTC(max_depth=10)breast_cancer_LogisticRegression_bin_scaled_mono_True_ratio_0.2'
p843
g3
(g5
S'\xf5\xd3O?\xfd\xf4\xd3?'
tRp844
sS'DTC(max_depth=10)breast_cancer_LogisticRegression_bin_scaled_mono_True_ratio_0.4'
p845
g3
(g5
S'v\xd9e\x97]v\xd9?'
tRp846
sS'DTC(max_depth=1000)breast_cancer_LogisticRegression_bin_scaled_mono_True_ratio_0.4'
p847
g3
(g5
S"'\x9ah\xa2\x89&\xda?"
tRp848
sS'RFC(n_estimators=25, max_features="sqrt")breast_cancer_Identity_bin_scaled_mono_True_ratio_0.2'
p849
g3
(g5
S'\xa5\x94RJ)\xa5\xd4?'
tRp850
sS'RFC(n_estimators=20, max_features="log2")breast_cancer_Summary_bin_scaled_mono_True_ratio_0.3'
p851
g3
(g5
S'\xf5\xd3O?\xfd\xf4\xd3?'
tRp852
sS'RFC(n_estimators=20, max_features="log2")breast_cancer_Summary_bin_scaled_mono_True_ratio_0.2'
p853
g3
(g5
S'E\x13M4\xd1D\xd3?'
tRp854
sS'RFC(n_estimators=20, max_features="log2")breast_cancer_Summary_bin_scaled_mono_True_ratio_0.1'
p855
g3
(g5
S'\x95RJ)\xa5\x94\xd2?'
tRp856
sS'RFC(n_estimators=20, max_features="log2")breast_cancer_Summary_bin_scaled_mono_True_ratio_0.0'
p857
g3
(g5
S'\xf5\xd3O?\xfd\xf4\xd3?'
tRp858
sS'DTC(max_depth=1000)breast_cancer_Identity_bin_scaled_mono_True_ratio_0.4'
p859
g3
(g5
S'H\x1ey\xe4\x91G\xce?'
tRp860
sS'DTC(max_depth=10)breast_cancer_SVM_bin_scaled_mono_True_ratio_0.4'
p861
g3
(g5
S'\xf5\xd3O?\xfd\xf4\xd3?'
tRp862
sS'RFC(n_estimators=20, max_features="log2")breast_cancer_Summary_bin_scaled_mono_True_ratio_0.4'
p863
g3
(g5
S'4\xd1D\x13M4\xd1?'
tRp864
sS'RFC(n_estimators=500, max_features="log2")breast_cancer_RandomReplace_bin_scaled_mono_True_ratio_0.4'
p865
g3
(g5
S'\xe7\x9cs\xce9\xe7\xcc?'
tRp866
sS'RFC(n_estimators=500, max_features="log2")breast_cancer_RandomReplace_bin_scaled_mono_True_ratio_0.0'
p867
g3
(g5
S'\x84\x10B\x08!\x84\xd0?'
tRp868
sS'RFC(n_estimators=500, max_features="log2")breast_cancer_RandomReplace_bin_scaled_mono_True_ratio_0.1'
p869
g3
(g5
S'\xe4\x91G\x1ey\xe4\xd1?'
tRp870
sS'RFC(n_estimators=500, max_features="log2")breast_cancer_RandomReplace_bin_scaled_mono_True_ratio_0.2'
p871
g3
(g5
S'4\xd1D\x13M4\xd1?'
tRp872
sS'RFC(n_estimators=500, max_features="log2")breast_cancer_RandomReplace_bin_scaled_mono_True_ratio_0.3'
p873
g3
(g5
S'E\x13M4\xd1D\xd3?'
tRp874
sS'RFC(n_estimators=1000, max_features="sqrt")breast_cancer_Summary_bin_scaled_mono_True_ratio_0.3'
p875
g3
(g5
S'E\x13M4\xd1D\xd3?'
tRp876
sS'RFC(n_estimators=100, max_features="sqrt")breast_cancer_Summary_bin_scaled_mono_True_ratio_0.1'
p877
g3
(g5
S'\xa8\x9f~\xfa\xe9\xa7\xcf?'
tRp878
sS'RFC(n_estimators=100, max_features="sqrt")breast_cancer_Summary_bin_scaled_mono_True_ratio_0.0'
p879
g3
(g5
S'\x95RJ)\xa5\x94\xd2?'
tRp880
sS'RFC(n_estimators=100, max_features="sqrt")breast_cancer_Summary_bin_scaled_mono_True_ratio_0.3'
p881
g3
(g5
S'\xb6\xd6Zk\xad\xb5\xd6?'
tRp882
sS'RFC(n_estimators=100, max_features="sqrt")breast_cancer_Summary_bin_scaled_mono_True_ratio_0.2'
p883
g3
(g5
S'\x84\x10B\x08!\x84\xd0?'
tRp884
sS'RFC(n_estimators=100, max_features="sqrt")breast_cancer_LogisticRegression_bin_scaled_mono_True_ratio_0.1'
p885
g3
(g5
S'4\xd1D\x13M4\xd1?'
tRp886
sS'RFC(n_estimators=100, max_features="sqrt")breast_cancer_LogisticRegression_bin_scaled_mono_True_ratio_0.0'
p887
g3
(g5
S'E\x13M4\xd1D\xd3?'
tRp888
sS'RFC(n_estimators=100, max_features="sqrt")breast_cancer_LogisticRegression_bin_scaled_mono_True_ratio_0.3'
p889
g3
(g5
S'\xe4\x91G\x1ey\xe4\xd1?'
tRp890
sS'RFC(n_estimators=100, max_features="sqrt")breast_cancer_LogisticRegression_bin_scaled_mono_True_ratio_0.2'
p891
g3
(g5
S'\xa8\x9f~\xfa\xe9\xa7\xcf?'
tRp892
sS'RFC(n_estimators=1500, max_features="log2")breast_cancer_Summary_bin_scaled_mono_True_ratio_0.4'
p893
g3
(g5
S'\xf5\xd3O?\xfd\xf4\xd3?'
tRp894
sS'DTC(max_depth=20)breast_cancer_RandomForest_bin_scaled_mono_True_ratio_0.4'
p895
g3
(g5
S'\xf5\xd3O?\xfd\xf4\xd3?'
tRp896
sS'DTC(max_depth=20)breast_cancer_RandomForest_bin_scaled_mono_True_ratio_0.3'
p897
g3
(g5
S'UUUUUU\xd5?'
tRp898
sS'DTC(max_depth=20)breast_cancer_RandomForest_bin_scaled_mono_True_ratio_0.2'
p899
g3
(g5
S'f\x97]v\xd9e\xd7?'
tRp900
sS'DTC(max_depth=20)breast_cancer_RandomForest_bin_scaled_mono_True_ratio_0.1'
p901
g3
(g5
S'\x06\x16X`\x81\x05\xd6?'
tRp902
sS'DTC(max_depth=20)breast_cancer_RandomForest_bin_scaled_mono_True_ratio_0.0'
p903
g3
(g5
S'\xa5\x94RJ)\xa5\xd4?'
tRp904
sS'DTC(max_depth=2000)breast_cancer_RandomReplace_bin_scaled_mono_True_ratio_0.4'
p905
g3
(g5
S'\x06\x16X`\x81\x05\xd6?'
tRp906
sS'DTC(max_depth=2000)breast_cancer_RandomReplace_bin_scaled_mono_True_ratio_0.3'
p907
g3
(g5
S'\xc6\x18c\x8c1\xc6\xd8?'
tRp908
sS'DTC(max_depth=2000)breast_cancer_RandomReplace_bin_scaled_mono_True_ratio_0.2'
p909
g3
(g5
S'\xa8\x9f~\xfa\xe9\xa7\xcf?'
tRp910
sS'DTC(max_depth=2000)breast_cancer_RandomReplace_bin_scaled_mono_True_ratio_0.1'
p911
g3
(g5
S'\xc6\x18c\x8c1\xc6\xd8?'
tRp912
sS'DTC(max_depth=2000)breast_cancer_RandomReplace_bin_scaled_mono_True_ratio_0.0'
p913
g3
(g5
S'4\xd1D\x13M4\xd1?'
tRp914
sS'RFC(n_estimators=2500, max_features="log2")breast_cancer_Identity_bin_scaled_mono_True_ratio_0.4'
p915
g3
(g5
S'\xe7\x9cs\xce9\xe7\xcc?'
tRp916
sS'DTC(max_depth=2500)breast_cancer_RandomReplace_bin_scaled_mono_True_ratio_0.4'
p917
g3
(g5
S'\x06\x16X`\x81\x05\xd6?'
tRp918
sS'DTC(max_depth=2500)breast_cancer_RandomReplace_bin_scaled_mono_True_ratio_0.0'
p919
g3
(g5
S'\x95RJ)\xa5\x94\xd2?'
tRp920
sS'DTC(max_depth=2500)breast_cancer_RandomReplace_bin_scaled_mono_True_ratio_0.1'
p921
g3
(g5
S'\xd7Zk\xad\xb5\xd6\xda?'
tRp922
sS'DTC(max_depth=2500)breast_cancer_RandomReplace_bin_scaled_mono_True_ratio_0.2'
p923
g3
(g5
S'\x84\x10B\x08!\x84\xd0?'
tRp924
sS'DTC(max_depth=2500)breast_cancer_RandomReplace_bin_scaled_mono_True_ratio_0.3'
p925
g3
(g5
S'7\xdcp\xc3\r7\xdc?'
tRp926
sS'DTC(max_depth=2500)breast_cancer_RandomForest_bin_scaled_mono_True_ratio_0.4'
p927
g3
(g5
S'\xa5\x94RJ)\xa5\xd4?'
tRp928
sS'DTC(max_depth=2500)breast_cancer_RandomForest_bin_scaled_mono_True_ratio_0.0'
p929
g3
(g5
S'E\x13M4\xd1D\xd3?'
tRp930
sS'DTC(max_depth=2500)breast_cancer_RandomForest_bin_scaled_mono_True_ratio_0.1'
p931
g3
(g5
S'\xa5\x94RJ)\xa5\xd4?'
tRp932
sS'DTC(max_depth=2500)breast_cancer_RandomForest_bin_scaled_mono_True_ratio_0.2'
p933
g3
(g5
S'\x16X`\x81\x05\x16\xd8?'
tRp934
sS'DTC(max_depth=2500)breast_cancer_RandomForest_bin_scaled_mono_True_ratio_0.3'
p935
g3
(g5
S'\xa5\x94RJ)\xa5\xd4?'
tRp936
sS'RFC(n_estimators=1500, max_features="log2")breast_cancer_LogisticRegression_bin_scaled_mono_True_ratio_0.2'
p937
g3
(g5
S'\x84\x10B\x08!\x84\xd0?'
tRp938
sS'RFC(n_estimators=1500, max_features="log2")breast_cancer_LogisticRegression_bin_scaled_mono_True_ratio_0.4'
p939
g3
(g5
S'\xa8\x9f~\xfa\xe9\xa7\xcf?'
tRp940
sS'RFC(n_estimators=20, max_features="log2")breast_cancer_RandomReplace_bin_scaled_mono_True_ratio_0.0'
p941
g3
(g5
S'\x95RJ)\xa5\x94\xd2?'
tRp942
sS'RFC(n_estimators=20, max_features="log2")breast_cancer_RandomReplace_bin_scaled_mono_True_ratio_0.1'
p943
g3
(g5
S'H\x1ey\xe4\x91G\xce?'
tRp944
sS'RFC(n_estimators=20, max_features="log2")breast_cancer_RandomReplace_bin_scaled_mono_True_ratio_0.2'
p945
g3
(g5
S'4\xd1D\x13M4\xd1?'
tRp946
sS'RFC(n_estimators=20, max_features="log2")breast_cancer_RandomReplace_bin_scaled_mono_True_ratio_0.3'
p947
g3
(g5
S'\xa5\x94RJ)\xa5\xd4?'
tRp948
sS'RFC(n_estimators=20, max_features="log2")breast_cancer_RandomReplace_bin_scaled_mono_True_ratio_0.4'
p949
g3
(g5
S'\xe7\x9cs\xce9\xe7\xcc?'
tRp950
sS'DTC(max_depth=100)breast_cancer_LogisticRegression_bin_scaled_mono_True_ratio_0.3'
p951
g3
(g5
S'\x16X`\x81\x05\x16\xd8?'
tRp952
sS'DTC(max_depth=25)breast_cancer_RandomReplace_bin_scaled_mono_True_ratio_0.0'
p953
g3
(g5
S'\xe4\x91G\x1ey\xe4\xd1?'
tRp954
sS'DTC(max_depth=100)breast_cancer_LogisticRegression_bin_scaled_mono_True_ratio_0.1'
p955
g3
(g5
S'4\xd1D\x13M4\xd1?'
tRp956
sS'RFC(n_estimators=25, max_features="sqrt")breast_cancer_Identity_bin_scaled_mono_True_ratio_0.1'
p957
g3
(g5
S'\x95RJ)\xa5\x94\xd2?'
tRp958
sS'RFC(n_estimators=25, max_features="sqrt")breast_cancer_Identity_bin_scaled_mono_True_ratio_0.0'
p959
g3
(g5
S'E\x13M4\xd1D\xd3?'
tRp960
sS'RFC(n_estimators=25, max_features="sqrt")breast_cancer_Identity_bin_scaled_mono_True_ratio_0.3'
p961
g3
(g5
S'\xe4\x91G\x1ey\xe4\xd1?'
tRp962
sS'RFC(n_estimators=100, max_features="sqrt")breast_cancer_SVM_bin_scaled_mono_True_ratio_0.0'
p963
g3
(g5
S'\x95RJ)\xa5\x94\xd2?'
tRp964
sS'RFC(n_estimators=25, max_features="sqrt")breast_cancer_Identity_bin_scaled_mono_True_ratio_0.4'
p965
g3
(g5
S'H\x1ey\xe4\x91G\xce?'
tRp966
sS'DTC(max_depth=25)breast_cancer_RandomReplace_bin_scaled_mono_True_ratio_0.2'
p967
g3
(g5
S'4\xd1D\x13M4\xd1?'
tRp968
sS'DTC(max_depth=25)breast_cancer_RandomReplace_bin_scaled_mono_True_ratio_0.3'
p969
g3
(g5
S'\x16X`\x81\x05\x16\xd8?'
tRp970
sS'DTC(max_depth=100)breast_cancer_LogisticRegression_bin_scaled_mono_True_ratio_0.0'
p971
g3
(g5
S'\x95RJ)\xa5\x94\xd2?'
tRp972
sS'DTC(max_depth=25)breast_cancer_RandomReplace_bin_scaled_mono_True_ratio_0.1'
p973
g3
(g5
S'v\xd9e\x97]v\xd9?'
tRp974
sS'DTC(max_depth=100)breast_cancer_LogisticRegression_bin_scaled_mono_True_ratio_0.4'
p975
g3
(g5
S'\xc6\x18c\x8c1\xc6\xd8?'
tRp976
sS'DTC(max_depth=25)breast_cancer_RandomReplace_bin_scaled_mono_True_ratio_0.4'
p977
g3
(g5
S'\xa5\x94RJ)\xa5\xd4?'
tRp978
sS'RFC(n_estimators=2000, max_features="sqrt")breast_cancer_RandomForest_bin_scaled_mono_True_ratio_0.4'
p979
g3
(g5
S'4\xd1D\x13M4\xd1?'
tRp980
sS'RFC(n_estimators=2000, max_features="sqrt")breast_cancer_RandomForest_bin_scaled_mono_True_ratio_0.0'
p981
g3
(g5
S'\x95RJ)\xa5\x94\xd2?'
tRp982
sS'RFC(n_estimators=2000, max_features="sqrt")breast_cancer_RandomForest_bin_scaled_mono_True_ratio_0.1'
p983
g3
(g5
S'4\xd1D\x13M4\xd1?'
tRp984
sS'RFC(n_estimators=2000, max_features="sqrt")breast_cancer_RandomForest_bin_scaled_mono_True_ratio_0.2'
p985
g3
(g5
S'\x95RJ)\xa5\x94\xd2?'
tRp986
sS'RFC(n_estimators=2000, max_features="sqrt")breast_cancer_RandomForest_bin_scaled_mono_True_ratio_0.3'
p987
g3
(g5
S'\xe4\x91G\x1ey\xe4\xd1?'
tRp988
sS'RFC(n_estimators=2000, max_features="sqrt")breast_cancer_Summary_bin_scaled_mono_True_ratio_0.4'
p989
g3
(g5
S'\xa5\x94RJ)\xa5\xd4?'
tRp990
sS'RFC(n_estimators=2000, max_features="sqrt")breast_cancer_Summary_bin_scaled_mono_True_ratio_0.3'
p991
g3
(g5
S'\xa5\x94RJ)\xa5\xd4?'
tRp992
sS'RFC(n_estimators=2000, max_features="sqrt")breast_cancer_Summary_bin_scaled_mono_True_ratio_0.2'
p993
g3
(g5
S'\xa8\x9f~\xfa\xe9\xa7\xcf?'
tRp994
sS'RFC(n_estimators=2000, max_features="sqrt")breast_cancer_Summary_bin_scaled_mono_True_ratio_0.1'
p995
g3
(g5
S'\x84\x10B\x08!\x84\xd0?'
tRp996
sS'RFC(n_estimators=2000, max_features="sqrt")breast_cancer_Summary_bin_scaled_mono_True_ratio_0.0'
p997
g3
(g5
S'\x95RJ)\xa5\x94\xd2?'
tRp998
sS'DTC(max_depth=500)breast_cancer_LogisticRegression_bin_scaled_mono_True_ratio_0.4'
p999
g3
(g5
S'v\xd9e\x97]v\xd9?'
tRp1000
sS'DTC(max_depth=500)breast_cancer_LogisticRegression_bin_scaled_mono_True_ratio_0.2'
p1001
g3
(g5
S'E\x13M4\xd1D\xd3?'
tRp1002
sS'DTC(max_depth=500)breast_cancer_LogisticRegression_bin_scaled_mono_True_ratio_0.3'
p1003
g3
(g5
S'v\xd9e\x97]v\xd9?'
tRp1004
sS'DTC(max_depth=500)breast_cancer_LogisticRegression_bin_scaled_mono_True_ratio_0.0'
p1005
g3
(g5
S'\x95RJ)\xa5\x94\xd2?'
tRp1006
sS'DTC(max_depth=500)breast_cancer_LogisticRegression_bin_scaled_mono_True_ratio_0.1'
p1007
g3
(g5
S'\xf5\xd3O?\xfd\xf4\xd3?'
tRp1008
sS'DTC(max_depth=2000)breast_cancer_Identity_bin_scaled_mono_True_ratio_0.4'
p1009
g3
(g5
S'E\x13M4\xd1D\xd3?'
tRp1010
sS'DTC(max_depth=2000)breast_cancer_Identity_bin_scaled_mono_True_ratio_0.1'
p1011
g3
(g5
S'\x06\x16X`\x81\x05\xd6?'
tRp1012
sS'DTC(max_depth=2000)breast_cancer_Identity_bin_scaled_mono_True_ratio_0.0'
p1013
g3
(g5
S'\xf5\xd3O?\xfd\xf4\xd3?'
tRp1014
sS'DTC(max_depth=2000)breast_cancer_Identity_bin_scaled_mono_True_ratio_0.3'
p1015
g3
(g5
S'\xd7Zk\xad\xb5\xd6\xda?'
tRp1016
sS'DTC(max_depth=2000)breast_cancer_Identity_bin_scaled_mono_True_ratio_0.2'
p1017
g3
(g5
S'\xb6\xd6Zk\xad\xb5\xd6?'
tRp1018
sS'RFC(n_estimators=1000, max_features="sqrt")breast_cancer_Identity_bin_scaled_mono_True_ratio_0.3'
p1019
g3
(g5
S'\xe4\x91G\x1ey\xe4\xd1?'
tRp1020
sS'RFC(n_estimators=1000, max_features="sqrt")breast_cancer_Identity_bin_scaled_mono_True_ratio_0.2'
p1021
g3
(g5
S'\xb6\xd6Zk\xad\xb5\xd6?'
tRp1022
sS'RFC(n_estimators=1000, max_features="sqrt")breast_cancer_Identity_bin_scaled_mono_True_ratio_0.1'
p1023
g3
(g5
S'\x84\x10B\x08!\x84\xd0?'
tRp1024
sS'RFC(n_estimators=1000, max_features="sqrt")breast_cancer_Identity_bin_scaled_mono_True_ratio_0.0'
p1025
g3
(g5
S'\x84\x10B\x08!\x84\xd0?'
tRp1026
sS'RFC(n_estimators=1000, max_features="sqrt")breast_cancer_Identity_bin_scaled_mono_True_ratio_0.4'
p1027
g3
(g5
S'H\x1ey\xe4\x91G\xce?'
tRp1028
sS'RFC(n_estimators=100, max_features="sqrt")breast_cancer_RandomForest_bin_scaled_mono_True_ratio_0.4'
p1029
g3
(g5
S'\x84\x10B\x08!\x84\xd0?'
tRp1030
sS'RFC(n_estimators=100, max_features="sqrt")breast_cancer_RandomForest_bin_scaled_mono_True_ratio_0.2'
p1031
g3
(g5
S'\x84\x10B\x08!\x84\xd0?'
tRp1032
sS'RFC(n_estimators=100, max_features="sqrt")breast_cancer_RandomForest_bin_scaled_mono_True_ratio_0.3'
p1033
g3
(g5
S'E\x13M4\xd1D\xd3?'
tRp1034
sS'RFC(n_estimators=100, max_features="sqrt")breast_cancer_RandomForest_bin_scaled_mono_True_ratio_0.0'
p1035
g3
(g5
S'\xe4\x91G\x1ey\xe4\xd1?'
tRp1036
sS'RFC(n_estimators=100, max_features="sqrt")breast_cancer_RandomForest_bin_scaled_mono_True_ratio_0.1'
p1037
g3
(g5
S'\x95RJ)\xa5\x94\xd2?'
tRp1038
sS'RFC(n_estimators=25, max_features="sqrt")breast_cancer_RandomReplace_bin_scaled_mono_True_ratio_0.3'
p1039
g3
(g5
S'\x06\x16X`\x81\x05\xd6?'
tRp1040
sS'RFC(n_estimators=25, max_features="sqrt")breast_cancer_RandomReplace_bin_scaled_mono_True_ratio_0.2'
p1041
g3
(g5
S'4\xd1D\x13M4\xd1?'
tRp1042
sS'RFC(n_estimators=25, max_features="sqrt")breast_cancer_RandomReplace_bin_scaled_mono_True_ratio_0.1'
p1043
g3
(g5
S'4\xd1D\x13M4\xd1?'
tRp1044
sS'RFC(n_estimators=25, max_features="sqrt")breast_cancer_RandomReplace_bin_scaled_mono_True_ratio_0.0'
p1045
g3
(g5
S'H\x1ey\xe4\x91G\xce?'
tRp1046
sS'RFC(n_estimators=25, max_features="sqrt")breast_cancer_RandomReplace_bin_scaled_mono_True_ratio_0.4'
p1047
g3
(g5
S'H\x1ey\xe4\x91G\xce?'
tRp1048
sS'RFC(n_estimators=2000, max_features="sqrt")breast_cancer_LogisticRegression_bin_scaled_mono_True_ratio_0.3'
p1049
g3
(g5
S'4\xd1D\x13M4\xd1?'
tRp1050
sS'RFC(n_estimators=2000, max_features="sqrt")breast_cancer_LogisticRegression_bin_scaled_mono_True_ratio_0.2'
p1051
g3
(g5
S'H\x1ey\xe4\x91G\xce?'
tRp1052
sS'RFC(n_estimators=2000, max_features="sqrt")breast_cancer_LogisticRegression_bin_scaled_mono_True_ratio_0.1'
p1053
g3
(g5
S'4\xd1D\x13M4\xd1?'
tRp1054
sS'RFC(n_estimators=2000, max_features="sqrt")breast_cancer_LogisticRegression_bin_scaled_mono_True_ratio_0.0'
p1055
g3
(g5
S'\xe4\x91G\x1ey\xe4\xd1?'
tRp1056
sS'RFC(n_estimators=2000, max_features="sqrt")breast_cancer_LogisticRegression_bin_scaled_mono_True_ratio_0.4'
p1057
g3
(g5
S'\xa8\x9f~\xfa\xe9\xa7\xcf?'
tRp1058
sS'DTC(max_depth=2000)breast_cancer_SVM_bin_scaled_mono_True_ratio_0.4'
p1059
g3
(g5
S'E\x13M4\xd1D\xd3?'
tRp1060
sS'DTC(max_depth=2000)breast_cancer_SVM_bin_scaled_mono_True_ratio_0.0'
p1061
g3
(g5
S'\x06\x16X`\x81\x05\xd6?'
tRp1062
sS'DTC(max_depth=2000)breast_cancer_SVM_bin_scaled_mono_True_ratio_0.1'
p1063
g3
(g5
S'\xa5\x94RJ)\xa5\xd4?'
tRp1064
sS'DTC(max_depth=2000)breast_cancer_SVM_bin_scaled_mono_True_ratio_0.2'
p1065
g3
(g5
S'\x16X`\x81\x05\x16\xd8?'
tRp1066
sS'DTC(max_depth=2000)breast_cancer_SVM_bin_scaled_mono_True_ratio_0.3'
p1067
g3
(g5
S'\x16X`\x81\x05\x16\xd8?'
tRp1068
sS'RFC(n_estimators=25, max_features="sqrt")breast_cancer_SVM_bin_scaled_mono_True_ratio_0.4'
p1069
g3
(g5
S'\xa8\x9f~\xfa\xe9\xa7\xcf?'
tRp1070
sS'DTC(max_depth=50)breast_cancer_Identity_bin_scaled_mono_True_ratio_0.2'
p1071
g3
(g5
S"'\x9ah\xa2\x89&\xda?"
tRp1072
sS'RFC(n_estimators=25, max_features="sqrt")breast_cancer_RandomForest_bin_scaled_mono_True_ratio_0.4'
p1073
g3
(g5
S'\xa8\x9f~\xfa\xe9\xa7\xcf?'
tRp1074
sS'DTC(max_depth=50)breast_cancer_Identity_bin_scaled_mono_True_ratio_0.0'
p1075
g3
(g5
S'\x06\x16X`\x81\x05\xd6?'
tRp1076
sS'DTC(max_depth=50)breast_cancer_Identity_bin_scaled_mono_True_ratio_0.1'
p1077
g3
(g5
S'\x16X`\x81\x05\x16\xd8?'
tRp1078
sS'RFC(n_estimators=25, max_features="sqrt")breast_cancer_RandomForest_bin_scaled_mono_True_ratio_0.1'
p1079
g3
(g5
S'\xe4\x91G\x1ey\xe4\xd1?'
tRp1080
sS'RFC(n_estimators=25, max_features="sqrt")breast_cancer_RandomForest_bin_scaled_mono_True_ratio_0.0'
p1081
g3
(g5
S'\xe4\x91G\x1ey\xe4\xd1?'
tRp1082
sS'RFC(n_estimators=25, max_features="sqrt")breast_cancer_RandomForest_bin_scaled_mono_True_ratio_0.3'
p1083
g3
(g5
S'4\xd1D\x13M4\xd1?'
tRp1084
sS'RFC(n_estimators=25, max_features="sqrt")breast_cancer_RandomForest_bin_scaled_mono_True_ratio_0.2'
p1085
g3
(g5
S'4\xd1D\x13M4\xd1?'
tRp1086
sS'DTC(max_depth=10)breast_cancer_Summary_bin_scaled_mono_True_ratio_0.4'
p1087
g3
(g5
S'\xd7Zk\xad\xb5\xd6\xda?'
tRp1088
sS'DTC(max_depth=10)breast_cancer_Summary_bin_scaled_mono_True_ratio_0.1'
p1089
g3
(g5
S'\xb6\xd6Zk\xad\xb5\xd6?'
tRp1090
sS'DTC(max_depth=10)breast_cancer_Summary_bin_scaled_mono_True_ratio_0.0'
p1091
g3
(g5
S'\xe4\x91G\x1ey\xe4\xd1?'
tRp1092
sS'DTC(max_depth=10)breast_cancer_Summary_bin_scaled_mono_True_ratio_0.3'
p1093
g3
(g5
S'f\x97]v\xd9e\xd7?'
tRp1094
sS'DTC(max_depth=10)breast_cancer_Summary_bin_scaled_mono_True_ratio_0.2'
p1095
g3
(g5
S'\xb6\xd6Zk\xad\xb5\xd6?'
tRp1096
sS'RFC(n_estimators=50, max_features="log2")breast_cancer_Summary_bin_scaled_mono_True_ratio_0.4'
p1097
g3
(g5
S'\xe4\x91G\x1ey\xe4\xd1?'
tRp1098
sS'RFC(n_estimators=50, max_features="log2")breast_cancer_Identity_bin_scaled_mono_True_ratio_0.4'
p1099
g3
(g5
S"'\x9ah\xa2\x89&\xca?"
tRp1100
sS'RFC(n_estimators=50, max_features="log2")breast_cancer_Summary_bin_scaled_mono_True_ratio_0.2'
p1101
g3
(g5
S'\x95RJ)\xa5\x94\xd2?'
tRp1102
sS'RFC(n_estimators=50, max_features="log2")breast_cancer_Summary_bin_scaled_mono_True_ratio_0.3'
p1103
g3
(g5
S'\xf5\xd3O?\xfd\xf4\xd3?'
tRp1104
sS'RFC(n_estimators=50, max_features="log2")breast_cancer_Summary_bin_scaled_mono_True_ratio_0.0'
p1105
g3
(g5
S'\xe4\x91G\x1ey\xe4\xd1?'
tRp1106
sS'RFC(n_estimators=50, max_features="log2")breast_cancer_Summary_bin_scaled_mono_True_ratio_0.1'
p1107
g3
(g5
S'H\x1ey\xe4\x91G\xce?'
tRp1108
sS'RFC(n_estimators=20, max_features="log2")breast_cancer_SVM_bin_scaled_mono_True_ratio_0.4'
p1109
g3
(g5
S'\x87\x1bn\xb8\xe1\x86\xcb?'
tRp1110
sS'RFC(n_estimators=20, max_features="log2")breast_cancer_SVM_bin_scaled_mono_True_ratio_0.3'
p1111
g3
(g5
S'UUUUUU\xd5?'
tRp1112
sS'RFC(n_estimators=20, max_features="log2")breast_cancer_SVM_bin_scaled_mono_True_ratio_0.2'
p1113
g3
(g5
S'E\x13M4\xd1D\xd3?'
tRp1114
sS'RFC(n_estimators=20, max_features="log2")breast_cancer_SVM_bin_scaled_mono_True_ratio_0.1'
p1115
g3
(g5
S'\x84\x10B\x08!\x84\xd0?'
tRp1116
sS'RFC(n_estimators=20, max_features="log2")breast_cancer_SVM_bin_scaled_mono_True_ratio_0.0'
p1117
g3
(g5
S'\xa5\x94RJ)\xa5\xd4?'
tRp1118
sS'DTC(max_depth=2500)breast_cancer_Summary_bin_scaled_mono_True_ratio_0.4'
p1119
g3
(g5
S'\xd7Zk\xad\xb5\xd6\xda?'
tRp1120
sS'DTC(max_depth=2500)breast_cancer_Summary_bin_scaled_mono_True_ratio_0.3'
p1121
g3
(g5
S"'\x9ah\xa2\x89&\xda?"
tRp1122
sS'DTC(max_depth=2500)breast_cancer_Summary_bin_scaled_mono_True_ratio_0.2'
p1123
g3
(g5
S'\xa5\x94RJ)\xa5\xd4?'
tRp1124
sS'DTC(max_depth=2500)breast_cancer_Summary_bin_scaled_mono_True_ratio_0.1'
p1125
g3
(g5
S'UUUUUU\xd5?'
tRp1126
sS'DTC(max_depth=2500)breast_cancer_Summary_bin_scaled_mono_True_ratio_0.0'
p1127
g3
(g5
S'\x95RJ)\xa5\x94\xd2?'
tRp1128
sS'RFC(n_estimators=50, max_features="log2")breast_cancer_RandomForest_bin_scaled_mono_True_ratio_0.3'
p1129
g3
(g5
S'E\x13M4\xd1D\xd3?'
tRp1130
sS'RFC(n_estimators=50, max_features="log2")breast_cancer_RandomForest_bin_scaled_mono_True_ratio_0.2'
p1131
g3
(g5
S'\xf5\xd3O?\xfd\xf4\xd3?'
tRp1132
sS'RFC(n_estimators=50, max_features="log2")breast_cancer_RandomForest_bin_scaled_mono_True_ratio_0.1'
p1133
g3
(g5
S'4\xd1D\x13M4\xd1?'
tRp1134
sS'RFC(n_estimators=50, max_features="log2")breast_cancer_RandomForest_bin_scaled_mono_True_ratio_0.0'
p1135
g3
(g5
S'4\xd1D\x13M4\xd1?'
tRp1136
sS'RFC(n_estimators=50, max_features="log2")breast_cancer_RandomForest_bin_scaled_mono_True_ratio_0.4'
p1137
g3
(g5
S'\xe7\x9cs\xce9\xe7\xcc?'
tRp1138
sS'DTC(max_depth=10)breast_cancer_SVM_bin_scaled_mono_True_ratio_0.0'
p1139
g3
(g5
S'\xf5\xd3O?\xfd\xf4\xd3?'
tRp1140
sS'DTC(max_depth=25)breast_cancer_RandomForest_bin_scaled_mono_True_ratio_0.2'
p1141
g3
(g5
S'\xd7Zk\xad\xb5\xd6\xda?'
tRp1142
sS'DTC(max_depth=25)breast_cancer_RandomForest_bin_scaled_mono_True_ratio_0.3'
p1143
g3
(g5
S'\xa5\x94RJ)\xa5\xd4?'
tRp1144
sS'DTC(max_depth=2000)breast_cancer_RandomForest_bin_scaled_mono_True_ratio_0.3'
p1145
g3
(g5
S'\xb6\xd6Zk\xad\xb5\xd6?'
tRp1146
sS'DTC(max_depth=2000)breast_cancer_RandomForest_bin_scaled_mono_True_ratio_0.2'
p1147
g3
(g5
S'\x06\x16X`\x81\x05\xd6?'
tRp1148
sS'DTC(max_depth=2000)breast_cancer_RandomForest_bin_scaled_mono_True_ratio_0.4'
p1149
g3
(g5
S'E\x13M4\xd1D\xd3?'
tRp1150
sS'DTC(max_depth=25)breast_cancer_RandomForest_bin_scaled_mono_True_ratio_0.4'
p1151
g3
(g5
S'UUUUUU\xd5?'
tRp1152
sS'DTC(max_depth=10)breast_cancer_SVM_bin_scaled_mono_True_ratio_0.3'
p1153
g3
(g5
S'\x06\x16X`\x81\x05\xd6?'
tRp1154
sS'DTC(max_depth=50)breast_cancer_Identity_bin_scaled_mono_True_ratio_0.4'
p1155
g3
(g5
S'\x95RJ)\xa5\x94\xd2?'
tRp1156
sS'DTC(max_depth=1000)breast_cancer_Summary_bin_scaled_mono_True_ratio_0.4'
p1157
g3
(g5
S'7\xdcp\xc3\r7\xdc?'
tRp1158
sS'DTC(max_depth=1000)breast_cancer_Summary_bin_scaled_mono_True_ratio_0.3'
p1159
g3
(g5
S'\x06\x16X`\x81\x05\xd6?'
tRp1160
sS'DTC(max_depth=1000)breast_cancer_Summary_bin_scaled_mono_True_ratio_0.2'
p1161
g3
(g5
S'\xb6\xd6Zk\xad\xb5\xd6?'
tRp1162
sS'DTC(max_depth=1000)breast_cancer_Summary_bin_scaled_mono_True_ratio_0.1'
p1163
g3
(g5
S'\xa5\x94RJ)\xa5\xd4?'
tRp1164
sS'DTC(max_depth=1000)breast_cancer_Summary_bin_scaled_mono_True_ratio_0.0'
p1165
g3
(g5
S'\xa5\x94RJ)\xa5\xd4?'
tRp1166
sS'DTC(max_depth=2500)breast_cancer_Identity_bin_scaled_mono_True_ratio_0.1'
p1167
g3
(g5
S'v\xd9e\x97]v\xd9?'
tRp1168
sS'RFC(n_estimators=100, max_features="sqrt")breast_cancer_SVM_bin_scaled_mono_True_ratio_0.4'
p1169
g3
(g5
S'\x84\x10B\x08!\x84\xd0?'
tRp1170
sS'DTC(max_depth=50)breast_cancer_RandomReplace_bin_scaled_mono_True_ratio_0.4'
p1171
g3
(g5
S'\xa5\x94RJ)\xa5\xd4?'
tRp1172
sS'DTC(max_depth=50)breast_cancer_RandomReplace_bin_scaled_mono_True_ratio_0.2'
p1173
g3
(g5
S'\x84\x10B\x08!\x84\xd0?'
tRp1174
sS'DTC(max_depth=50)breast_cancer_RandomReplace_bin_scaled_mono_True_ratio_0.3'
p1175
g3
(g5
S'\x87\x1bn\xb8\xe1\x86\xdb?'
tRp1176
sS'DTC(max_depth=50)breast_cancer_RandomReplace_bin_scaled_mono_True_ratio_0.0'
p1177
g3
(g5
S'\x95RJ)\xa5\x94\xd2?'
tRp1178
sS'DTC(max_depth=50)breast_cancer_RandomReplace_bin_scaled_mono_True_ratio_0.1'
p1179
g3
(g5
S'\xb6\xd6Zk\xad\xb5\xd6?'
tRp1180
sS'DTC(max_depth=1000)breast_cancer_Identity_bin_scaled_mono_True_ratio_0.0'
p1181
g3
(g5
S'\x06\x16X`\x81\x05\xd6?'
tRp1182
sS'DTC(max_depth=2500)breast_cancer_LogisticRegression_bin_scaled_mono_True_ratio_0.3'
p1183
g3
(g5
S'f\x97]v\xd9e\xd7?'
tRp1184
sS'DTC(max_depth=2500)breast_cancer_LogisticRegression_bin_scaled_mono_True_ratio_0.2'
p1185
g3
(g5
S'\x16X`\x81\x05\x16\xd8?'
tRp1186
sS'DTC(max_depth=2500)breast_cancer_LogisticRegression_bin_scaled_mono_True_ratio_0.1'
p1187
g3
(g5
S'\x95RJ)\xa5\x94\xd2?'
tRp1188
sS'DTC(max_depth=2500)breast_cancer_LogisticRegression_bin_scaled_mono_True_ratio_0.0'
p1189
g3
(g5
S'UUUUUU\xd5?'
tRp1190
sS'DTC(max_depth=2500)breast_cancer_LogisticRegression_bin_scaled_mono_True_ratio_0.4'
p1191
g3
(g5
S'\x16X`\x81\x05\x16\xd8?'
tRp1192
sS'DTC(max_depth=1000)breast_cancer_Identity_bin_scaled_mono_True_ratio_0.1'
p1193
g3
(g5
S'f\x97]v\xd9e\xd7?'
tRp1194
sS'RFC(n_estimators=1500, max_features="log2")breast_cancer_RandomReplace_bin_scaled_mono_True_ratio_0.2'
p1195
g3
(g5
S'4\xd1D\x13M4\xd1?'
tRp1196
sS'RFC(n_estimators=1500, max_features="log2")breast_cancer_RandomReplace_bin_scaled_mono_True_ratio_0.3'
p1197
g3
(g5
S'E\x13M4\xd1D\xd3?'
tRp1198
sS'RFC(n_estimators=1500, max_features="log2")breast_cancer_RandomReplace_bin_scaled_mono_True_ratio_0.0'
p1199
g3
(g5
S'\x95RJ)\xa5\x94\xd2?'
tRp1200
sS'RFC(n_estimators=1500, max_features="log2")breast_cancer_RandomReplace_bin_scaled_mono_True_ratio_0.1'
p1201
g3
(g5
S'\xe4\x91G\x1ey\xe4\xd1?'
tRp1202
sS'RFC(n_estimators=1500, max_features="log2")breast_cancer_RandomReplace_bin_scaled_mono_True_ratio_0.4'
p1203
g3
(g5
S'\xe7\x9cs\xce9\xe7\xcc?'
tRp1204
s.